
kernel/kernel：     文件格式 elf64-littleriscv


Disassembly of section .text:

0000000080000000 <_entry>:
_entry:
	# set up a stack for C.
        # stack0 is declared in start.c,
        # with a 4096-byte stack per CPU.
        # sp = stack0 + (hartid * 4096)
        la sp, stack0
    80000000:	00009117          	auipc	sp,0x9
    80000004:	87013103          	ld	sp,-1936(sp) # 80008870 <_GLOBAL_OFFSET_TABLE_+0x8>
        li a0, 1024*4
    80000008:	6505                	lui	a0,0x1
	csrr a1, mhartid
    8000000a:	f14025f3          	csrr	a1,mhartid
        addi a1, a1, 1
    8000000e:	0585                	addi	a1,a1,1
        mul a0, a0, a1
    80000010:	02b50533          	mul	a0,a0,a1
        add sp, sp, a0
    80000014:	912a                	add	sp,sp,a0
	# jump to start() in start.c
        call start
    80000016:	078000ef          	jal	ra,8000008e <start>

000000008000001a <spin>:
spin:
        j spin
    8000001a:	a001                	j	8000001a <spin>

000000008000001c <timerinit>:
// which arrive at timervec in kernelvec.S,
// which turns them into software interrupts for
// devintr() in trap.c.
void
timerinit()
{
    8000001c:	1141                	addi	sp,sp,-16
    8000001e:	e422                	sd	s0,8(sp)
    80000020:	0800                	addi	s0,sp,16
// which hart (core) is this?
static inline uint64
r_mhartid()
{
  uint64 x;
  asm volatile("csrr %0, mhartid" : "=r" (x) );
    80000022:	f14027f3          	csrr	a5,mhartid
  // each CPU has a separate source of timer interrupts.
  int id = r_mhartid();
    80000026:	0007869b          	sext.w	a3,a5

  // ask the CLINT for a timer interrupt.
  int interval = 1000000; // cycles; about 1/10th second in qemu.
  *(uint64*)CLINT_MTIMECMP(id) = *(uint64*)CLINT_MTIME + interval;
    8000002a:	0037979b          	slliw	a5,a5,0x3
    8000002e:	02004737          	lui	a4,0x2004
    80000032:	97ba                	add	a5,a5,a4
    80000034:	0200c737          	lui	a4,0x200c
    80000038:	ff873583          	ld	a1,-8(a4) # 200bff8 <_entry-0x7dff4008>
    8000003c:	000f4637          	lui	a2,0xf4
    80000040:	24060613          	addi	a2,a2,576 # f4240 <_entry-0x7ff0bdc0>
    80000044:	95b2                	add	a1,a1,a2
    80000046:	e38c                	sd	a1,0(a5)

  // prepare information in scratch[] for timervec.
  // scratch[0..2] : space for timervec to save registers.
  // scratch[3] : address of CLINT MTIMECMP register.
  // scratch[4] : desired interval (in cycles) between timer interrupts.
  uint64 *scratch = &timer_scratch[id][0];
    80000048:	00269713          	slli	a4,a3,0x2
    8000004c:	9736                	add	a4,a4,a3
    8000004e:	00371693          	slli	a3,a4,0x3
    80000052:	00009717          	auipc	a4,0x9
    80000056:	fee70713          	addi	a4,a4,-18 # 80009040 <timer_scratch>
    8000005a:	9736                	add	a4,a4,a3
  scratch[3] = CLINT_MTIMECMP(id);
    8000005c:	ef1c                	sd	a5,24(a4)
  scratch[4] = interval;
    8000005e:	f310                	sd	a2,32(a4)
}

static inline void 
w_mscratch(uint64 x)
{
  asm volatile("csrw mscratch, %0" : : "r" (x));
    80000060:	34071073          	csrw	mscratch,a4
  asm volatile("csrw mtvec, %0" : : "r" (x));
    80000064:	00006797          	auipc	a5,0x6
    80000068:	4ac78793          	addi	a5,a5,1196 # 80006510 <timervec>
    8000006c:	30579073          	csrw	mtvec,a5
  asm volatile("csrr %0, mstatus" : "=r" (x) );
    80000070:	300027f3          	csrr	a5,mstatus

  // set the machine-mode trap handler.
  w_mtvec((uint64)timervec);

  // enable machine-mode interrupts.
  w_mstatus(r_mstatus() | MSTATUS_MIE);
    80000074:	0087e793          	ori	a5,a5,8
  asm volatile("csrw mstatus, %0" : : "r" (x));
    80000078:	30079073          	csrw	mstatus,a5
  asm volatile("csrr %0, mie" : "=r" (x) );
    8000007c:	304027f3          	csrr	a5,mie

  // enable machine-mode timer interrupts.
  w_mie(r_mie() | MIE_MTIE);
    80000080:	0807e793          	ori	a5,a5,128
  asm volatile("csrw mie, %0" : : "r" (x));
    80000084:	30479073          	csrw	mie,a5
}
    80000088:	6422                	ld	s0,8(sp)
    8000008a:	0141                	addi	sp,sp,16
    8000008c:	8082                	ret

000000008000008e <start>:
{
    8000008e:	1141                	addi	sp,sp,-16
    80000090:	e406                	sd	ra,8(sp)
    80000092:	e022                	sd	s0,0(sp)
    80000094:	0800                	addi	s0,sp,16
  asm volatile("csrr %0, mstatus" : "=r" (x) );
    80000096:	300027f3          	csrr	a5,mstatus
  x &= ~MSTATUS_MPP_MASK;
    8000009a:	7779                	lui	a4,0xffffe
    8000009c:	7ff70713          	addi	a4,a4,2047 # ffffffffffffe7ff <end+0xffffffff7ffd87ff>
    800000a0:	8ff9                	and	a5,a5,a4
  x |= MSTATUS_MPP_S;
    800000a2:	6705                	lui	a4,0x1
    800000a4:	80070713          	addi	a4,a4,-2048 # 800 <_entry-0x7ffff800>
    800000a8:	8fd9                	or	a5,a5,a4
  asm volatile("csrw mstatus, %0" : : "r" (x));
    800000aa:	30079073          	csrw	mstatus,a5
  asm volatile("csrw mepc, %0" : : "r" (x));
    800000ae:	00001797          	auipc	a5,0x1
    800000b2:	f1478793          	addi	a5,a5,-236 # 80000fc2 <main>
    800000b6:	34179073          	csrw	mepc,a5
  asm volatile("csrw satp, %0" : : "r" (x));
    800000ba:	4781                	li	a5,0
    800000bc:	18079073          	csrw	satp,a5
  asm volatile("csrw medeleg, %0" : : "r" (x));
    800000c0:	67c1                	lui	a5,0x10
    800000c2:	17fd                	addi	a5,a5,-1
    800000c4:	30279073          	csrw	medeleg,a5
  asm volatile("csrw mideleg, %0" : : "r" (x));
    800000c8:	30379073          	csrw	mideleg,a5
  asm volatile("csrr %0, sie" : "=r" (x) );
    800000cc:	104027f3          	csrr	a5,sie
  w_sie(r_sie() | SIE_SEIE | SIE_STIE | SIE_SSIE);
    800000d0:	2227e793          	ori	a5,a5,546
  asm volatile("csrw sie, %0" : : "r" (x));
    800000d4:	10479073          	csrw	sie,a5
  timerinit();
    800000d8:	00000097          	auipc	ra,0x0
    800000dc:	f44080e7          	jalr	-188(ra) # 8000001c <timerinit>
  asm volatile("csrr %0, mhartid" : "=r" (x) );
    800000e0:	f14027f3          	csrr	a5,mhartid
  w_tp(id);
    800000e4:	2781                	sext.w	a5,a5
}

static inline void 
w_tp(uint64 x)
{
  asm volatile("mv tp, %0" : : "r" (x));
    800000e6:	823e                	mv	tp,a5
  asm volatile("mret");
    800000e8:	30200073          	mret
}
    800000ec:	60a2                	ld	ra,8(sp)
    800000ee:	6402                	ld	s0,0(sp)
    800000f0:	0141                	addi	sp,sp,16
    800000f2:	8082                	ret

00000000800000f4 <consolewrite>:
//
// user write()s to the console go here.
//
int
consolewrite(int user_src, uint64 src, int n)
{
    800000f4:	715d                	addi	sp,sp,-80
    800000f6:	e486                	sd	ra,72(sp)
    800000f8:	e0a2                	sd	s0,64(sp)
    800000fa:	fc26                	sd	s1,56(sp)
    800000fc:	f84a                	sd	s2,48(sp)
    800000fe:	f44e                	sd	s3,40(sp)
    80000100:	f052                	sd	s4,32(sp)
    80000102:	ec56                	sd	s5,24(sp)
    80000104:	0880                	addi	s0,sp,80
  int i;

  for(i = 0; i < n; i++){
    80000106:	04c05663          	blez	a2,80000152 <consolewrite+0x5e>
    8000010a:	8a2a                	mv	s4,a0
    8000010c:	84ae                	mv	s1,a1
    8000010e:	89b2                	mv	s3,a2
    80000110:	4901                	li	s2,0
    char c;
    if(either_copyin(&c, user_src, src+i, 1) == -1)
    80000112:	5afd                	li	s5,-1
    80000114:	4685                	li	a3,1
    80000116:	8626                	mv	a2,s1
    80000118:	85d2                	mv	a1,s4
    8000011a:	fbf40513          	addi	a0,s0,-65
    8000011e:	00003097          	auipc	ra,0x3
    80000122:	cd2080e7          	jalr	-814(ra) # 80002df0 <either_copyin>
    80000126:	01550c63          	beq	a0,s5,8000013e <consolewrite+0x4a>
      break;
    uartputc(c);
    8000012a:	fbf44503          	lbu	a0,-65(s0)
    8000012e:	00000097          	auipc	ra,0x0
    80000132:	78e080e7          	jalr	1934(ra) # 800008bc <uartputc>
  for(i = 0; i < n; i++){
    80000136:	2905                	addiw	s2,s2,1
    80000138:	0485                	addi	s1,s1,1
    8000013a:	fd299de3          	bne	s3,s2,80000114 <consolewrite+0x20>
  }

  return i;
}
    8000013e:	854a                	mv	a0,s2
    80000140:	60a6                	ld	ra,72(sp)
    80000142:	6406                	ld	s0,64(sp)
    80000144:	74e2                	ld	s1,56(sp)
    80000146:	7942                	ld	s2,48(sp)
    80000148:	79a2                	ld	s3,40(sp)
    8000014a:	7a02                	ld	s4,32(sp)
    8000014c:	6ae2                	ld	s5,24(sp)
    8000014e:	6161                	addi	sp,sp,80
    80000150:	8082                	ret
  for(i = 0; i < n; i++){
    80000152:	4901                	li	s2,0
    80000154:	b7ed                	j	8000013e <consolewrite+0x4a>

0000000080000156 <consoleread>:
// user_dist indicates whether dst is a user
// or kernel address.
//
int
consoleread(int user_dst, uint64 dst, int n)
{
    80000156:	7119                	addi	sp,sp,-128
    80000158:	fc86                	sd	ra,120(sp)
    8000015a:	f8a2                	sd	s0,112(sp)
    8000015c:	f4a6                	sd	s1,104(sp)
    8000015e:	f0ca                	sd	s2,96(sp)
    80000160:	ecce                	sd	s3,88(sp)
    80000162:	e8d2                	sd	s4,80(sp)
    80000164:	e4d6                	sd	s5,72(sp)
    80000166:	e0da                	sd	s6,64(sp)
    80000168:	fc5e                	sd	s7,56(sp)
    8000016a:	f862                	sd	s8,48(sp)
    8000016c:	f466                	sd	s9,40(sp)
    8000016e:	f06a                	sd	s10,32(sp)
    80000170:	ec6e                	sd	s11,24(sp)
    80000172:	0100                	addi	s0,sp,128
    80000174:	8b2a                	mv	s6,a0
    80000176:	8aae                	mv	s5,a1
    80000178:	8a32                	mv	s4,a2
  uint target;
  int c;
  char cbuf;

  target = n;
    8000017a:	00060b9b          	sext.w	s7,a2
  acquire(&cons.lock);
    8000017e:	00011517          	auipc	a0,0x11
    80000182:	00250513          	addi	a0,a0,2 # 80011180 <cons>
    80000186:	00001097          	auipc	ra,0x1
    8000018a:	b8e080e7          	jalr	-1138(ra) # 80000d14 <acquire>
  while(n > 0){
    // wait until interrupt handler has put some
    // input into cons.buffer.
    while(cons.r == cons.w){
    8000018e:	00011497          	auipc	s1,0x11
    80000192:	ff248493          	addi	s1,s1,-14 # 80011180 <cons>
      if(myproc()->killed){
        release(&cons.lock);
        return -1;
      }
      sleep(&cons.r, &cons.lock);
    80000196:	89a6                	mv	s3,s1
    80000198:	00011917          	auipc	s2,0x11
    8000019c:	08090913          	addi	s2,s2,128 # 80011218 <cons+0x98>
    }

    c = cons.buf[cons.r++ % INPUT_BUF];

    if(c == C('D')){  // end-of-file
    800001a0:	4c91                	li	s9,4
      break;
    }

    // copy the input byte to the user-space buffer.
    cbuf = c;
    if(either_copyout(user_dst, dst, &cbuf, 1) == -1)
    800001a2:	5d7d                	li	s10,-1
      break;

    dst++;
    --n;

    if(c == '\n'){
    800001a4:	4da9                	li	s11,10
  while(n > 0){
    800001a6:	07405863          	blez	s4,80000216 <consoleread+0xc0>
    while(cons.r == cons.w){
    800001aa:	0984a783          	lw	a5,152(s1)
    800001ae:	09c4a703          	lw	a4,156(s1)
    800001b2:	02f71463          	bne	a4,a5,800001da <consoleread+0x84>
      if(myproc()->killed){
    800001b6:	00002097          	auipc	ra,0x2
    800001ba:	020080e7          	jalr	32(ra) # 800021d6 <myproc>
    800001be:	591c                	lw	a5,48(a0)
    800001c0:	e7b5                	bnez	a5,8000022c <consoleread+0xd6>
      sleep(&cons.r, &cons.lock);
    800001c2:	85ce                	mv	a1,s3
    800001c4:	854a                	mv	a0,s2
    800001c6:	00003097          	auipc	ra,0x3
    800001ca:	972080e7          	jalr	-1678(ra) # 80002b38 <sleep>
    while(cons.r == cons.w){
    800001ce:	0984a783          	lw	a5,152(s1)
    800001d2:	09c4a703          	lw	a4,156(s1)
    800001d6:	fef700e3          	beq	a4,a5,800001b6 <consoleread+0x60>
    c = cons.buf[cons.r++ % INPUT_BUF];
    800001da:	0017871b          	addiw	a4,a5,1
    800001de:	08e4ac23          	sw	a4,152(s1)
    800001e2:	07f7f713          	andi	a4,a5,127
    800001e6:	9726                	add	a4,a4,s1
    800001e8:	01874703          	lbu	a4,24(a4)
    800001ec:	00070c1b          	sext.w	s8,a4
    if(c == C('D')){  // end-of-file
    800001f0:	079c0663          	beq	s8,s9,8000025c <consoleread+0x106>
    cbuf = c;
    800001f4:	f8e407a3          	sb	a4,-113(s0)
    if(either_copyout(user_dst, dst, &cbuf, 1) == -1)
    800001f8:	4685                	li	a3,1
    800001fa:	f8f40613          	addi	a2,s0,-113
    800001fe:	85d6                	mv	a1,s5
    80000200:	855a                	mv	a0,s6
    80000202:	00003097          	auipc	ra,0x3
    80000206:	b98080e7          	jalr	-1128(ra) # 80002d9a <either_copyout>
    8000020a:	01a50663          	beq	a0,s10,80000216 <consoleread+0xc0>
    dst++;
    8000020e:	0a85                	addi	s5,s5,1
    --n;
    80000210:	3a7d                	addiw	s4,s4,-1
    if(c == '\n'){
    80000212:	f9bc1ae3          	bne	s8,s11,800001a6 <consoleread+0x50>
      // a whole line has arrived, return to
      // the user-level read().
      break;
    }
  }
  release(&cons.lock);
    80000216:	00011517          	auipc	a0,0x11
    8000021a:	f6a50513          	addi	a0,a0,-150 # 80011180 <cons>
    8000021e:	00001097          	auipc	ra,0x1
    80000222:	baa080e7          	jalr	-1110(ra) # 80000dc8 <release>

  return target - n;
    80000226:	414b853b          	subw	a0,s7,s4
    8000022a:	a811                	j	8000023e <consoleread+0xe8>
        release(&cons.lock);
    8000022c:	00011517          	auipc	a0,0x11
    80000230:	f5450513          	addi	a0,a0,-172 # 80011180 <cons>
    80000234:	00001097          	auipc	ra,0x1
    80000238:	b94080e7          	jalr	-1132(ra) # 80000dc8 <release>
        return -1;
    8000023c:	557d                	li	a0,-1
}
    8000023e:	70e6                	ld	ra,120(sp)
    80000240:	7446                	ld	s0,112(sp)
    80000242:	74a6                	ld	s1,104(sp)
    80000244:	7906                	ld	s2,96(sp)
    80000246:	69e6                	ld	s3,88(sp)
    80000248:	6a46                	ld	s4,80(sp)
    8000024a:	6aa6                	ld	s5,72(sp)
    8000024c:	6b06                	ld	s6,64(sp)
    8000024e:	7be2                	ld	s7,56(sp)
    80000250:	7c42                	ld	s8,48(sp)
    80000252:	7ca2                	ld	s9,40(sp)
    80000254:	7d02                	ld	s10,32(sp)
    80000256:	6de2                	ld	s11,24(sp)
    80000258:	6109                	addi	sp,sp,128
    8000025a:	8082                	ret
      if(n < target){
    8000025c:	000a071b          	sext.w	a4,s4
    80000260:	fb777be3          	bgeu	a4,s7,80000216 <consoleread+0xc0>
        cons.r--;
    80000264:	00011717          	auipc	a4,0x11
    80000268:	faf72a23          	sw	a5,-76(a4) # 80011218 <cons+0x98>
    8000026c:	b76d                	j	80000216 <consoleread+0xc0>

000000008000026e <consputc>:
{
    8000026e:	1141                	addi	sp,sp,-16
    80000270:	e406                	sd	ra,8(sp)
    80000272:	e022                	sd	s0,0(sp)
    80000274:	0800                	addi	s0,sp,16
  if(c == BACKSPACE){
    80000276:	10000793          	li	a5,256
    8000027a:	00f50a63          	beq	a0,a5,8000028e <consputc+0x20>
    uartputc_sync(c);
    8000027e:	00000097          	auipc	ra,0x0
    80000282:	564080e7          	jalr	1380(ra) # 800007e2 <uartputc_sync>
}
    80000286:	60a2                	ld	ra,8(sp)
    80000288:	6402                	ld	s0,0(sp)
    8000028a:	0141                	addi	sp,sp,16
    8000028c:	8082                	ret
    uartputc_sync('\b'); uartputc_sync(' '); uartputc_sync('\b');
    8000028e:	4521                	li	a0,8
    80000290:	00000097          	auipc	ra,0x0
    80000294:	552080e7          	jalr	1362(ra) # 800007e2 <uartputc_sync>
    80000298:	02000513          	li	a0,32
    8000029c:	00000097          	auipc	ra,0x0
    800002a0:	546080e7          	jalr	1350(ra) # 800007e2 <uartputc_sync>
    800002a4:	4521                	li	a0,8
    800002a6:	00000097          	auipc	ra,0x0
    800002aa:	53c080e7          	jalr	1340(ra) # 800007e2 <uartputc_sync>
    800002ae:	bfe1                	j	80000286 <consputc+0x18>

00000000800002b0 <consoleintr>:
// do erase/kill processing, append to cons.buf,
// wake up consoleread() if a whole line has arrived.
//
void
consoleintr(int c)
{
    800002b0:	1101                	addi	sp,sp,-32
    800002b2:	ec06                	sd	ra,24(sp)
    800002b4:	e822                	sd	s0,16(sp)
    800002b6:	e426                	sd	s1,8(sp)
    800002b8:	e04a                	sd	s2,0(sp)
    800002ba:	1000                	addi	s0,sp,32
    800002bc:	84aa                	mv	s1,a0
  acquire(&cons.lock);
    800002be:	00011517          	auipc	a0,0x11
    800002c2:	ec250513          	addi	a0,a0,-318 # 80011180 <cons>
    800002c6:	00001097          	auipc	ra,0x1
    800002ca:	a4e080e7          	jalr	-1458(ra) # 80000d14 <acquire>

  switch(c){
    800002ce:	47d5                	li	a5,21
    800002d0:	0af48663          	beq	s1,a5,8000037c <consoleintr+0xcc>
    800002d4:	0297ca63          	blt	a5,s1,80000308 <consoleintr+0x58>
    800002d8:	47a1                	li	a5,8
    800002da:	0ef48763          	beq	s1,a5,800003c8 <consoleintr+0x118>
    800002de:	47c1                	li	a5,16
    800002e0:	10f49a63          	bne	s1,a5,800003f4 <consoleintr+0x144>
  case C('P'):  // Print process list.
    procdump();
    800002e4:	00003097          	auipc	ra,0x3
    800002e8:	b62080e7          	jalr	-1182(ra) # 80002e46 <procdump>
      }
    }
    break;
  }
  
  release(&cons.lock);
    800002ec:	00011517          	auipc	a0,0x11
    800002f0:	e9450513          	addi	a0,a0,-364 # 80011180 <cons>
    800002f4:	00001097          	auipc	ra,0x1
    800002f8:	ad4080e7          	jalr	-1324(ra) # 80000dc8 <release>
}
    800002fc:	60e2                	ld	ra,24(sp)
    800002fe:	6442                	ld	s0,16(sp)
    80000300:	64a2                	ld	s1,8(sp)
    80000302:	6902                	ld	s2,0(sp)
    80000304:	6105                	addi	sp,sp,32
    80000306:	8082                	ret
  switch(c){
    80000308:	07f00793          	li	a5,127
    8000030c:	0af48e63          	beq	s1,a5,800003c8 <consoleintr+0x118>
    if(c != 0 && cons.e-cons.r < INPUT_BUF){
    80000310:	00011717          	auipc	a4,0x11
    80000314:	e7070713          	addi	a4,a4,-400 # 80011180 <cons>
    80000318:	0a072783          	lw	a5,160(a4)
    8000031c:	09872703          	lw	a4,152(a4)
    80000320:	9f99                	subw	a5,a5,a4
    80000322:	07f00713          	li	a4,127
    80000326:	fcf763e3          	bltu	a4,a5,800002ec <consoleintr+0x3c>
      c = (c == '\r') ? '\n' : c;
    8000032a:	47b5                	li	a5,13
    8000032c:	0cf48763          	beq	s1,a5,800003fa <consoleintr+0x14a>
      consputc(c);
    80000330:	8526                	mv	a0,s1
    80000332:	00000097          	auipc	ra,0x0
    80000336:	f3c080e7          	jalr	-196(ra) # 8000026e <consputc>
      cons.buf[cons.e++ % INPUT_BUF] = c;
    8000033a:	00011797          	auipc	a5,0x11
    8000033e:	e4678793          	addi	a5,a5,-442 # 80011180 <cons>
    80000342:	0a07a703          	lw	a4,160(a5)
    80000346:	0017069b          	addiw	a3,a4,1
    8000034a:	0006861b          	sext.w	a2,a3
    8000034e:	0ad7a023          	sw	a3,160(a5)
    80000352:	07f77713          	andi	a4,a4,127
    80000356:	97ba                	add	a5,a5,a4
    80000358:	00978c23          	sb	s1,24(a5)
      if(c == '\n' || c == C('D') || cons.e == cons.r+INPUT_BUF){
    8000035c:	47a9                	li	a5,10
    8000035e:	0cf48563          	beq	s1,a5,80000428 <consoleintr+0x178>
    80000362:	4791                	li	a5,4
    80000364:	0cf48263          	beq	s1,a5,80000428 <consoleintr+0x178>
    80000368:	00011797          	auipc	a5,0x11
    8000036c:	eb07a783          	lw	a5,-336(a5) # 80011218 <cons+0x98>
    80000370:	0807879b          	addiw	a5,a5,128
    80000374:	f6f61ce3          	bne	a2,a5,800002ec <consoleintr+0x3c>
      cons.buf[cons.e++ % INPUT_BUF] = c;
    80000378:	863e                	mv	a2,a5
    8000037a:	a07d                	j	80000428 <consoleintr+0x178>
    while(cons.e != cons.w &&
    8000037c:	00011717          	auipc	a4,0x11
    80000380:	e0470713          	addi	a4,a4,-508 # 80011180 <cons>
    80000384:	0a072783          	lw	a5,160(a4)
    80000388:	09c72703          	lw	a4,156(a4)
          cons.buf[(cons.e-1) % INPUT_BUF] != '\n'){
    8000038c:	00011497          	auipc	s1,0x11
    80000390:	df448493          	addi	s1,s1,-524 # 80011180 <cons>
    while(cons.e != cons.w &&
    80000394:	4929                	li	s2,10
    80000396:	f4f70be3          	beq	a4,a5,800002ec <consoleintr+0x3c>
          cons.buf[(cons.e-1) % INPUT_BUF] != '\n'){
    8000039a:	37fd                	addiw	a5,a5,-1
    8000039c:	07f7f713          	andi	a4,a5,127
    800003a0:	9726                	add	a4,a4,s1
    while(cons.e != cons.w &&
    800003a2:	01874703          	lbu	a4,24(a4)
    800003a6:	f52703e3          	beq	a4,s2,800002ec <consoleintr+0x3c>
      cons.e--;
    800003aa:	0af4a023          	sw	a5,160(s1)
      consputc(BACKSPACE);
    800003ae:	10000513          	li	a0,256
    800003b2:	00000097          	auipc	ra,0x0
    800003b6:	ebc080e7          	jalr	-324(ra) # 8000026e <consputc>
    while(cons.e != cons.w &&
    800003ba:	0a04a783          	lw	a5,160(s1)
    800003be:	09c4a703          	lw	a4,156(s1)
    800003c2:	fcf71ce3          	bne	a4,a5,8000039a <consoleintr+0xea>
    800003c6:	b71d                	j	800002ec <consoleintr+0x3c>
    if(cons.e != cons.w){
    800003c8:	00011717          	auipc	a4,0x11
    800003cc:	db870713          	addi	a4,a4,-584 # 80011180 <cons>
    800003d0:	0a072783          	lw	a5,160(a4)
    800003d4:	09c72703          	lw	a4,156(a4)
    800003d8:	f0f70ae3          	beq	a4,a5,800002ec <consoleintr+0x3c>
      cons.e--;
    800003dc:	37fd                	addiw	a5,a5,-1
    800003de:	00011717          	auipc	a4,0x11
    800003e2:	e4f72123          	sw	a5,-446(a4) # 80011220 <cons+0xa0>
      consputc(BACKSPACE);
    800003e6:	10000513          	li	a0,256
    800003ea:	00000097          	auipc	ra,0x0
    800003ee:	e84080e7          	jalr	-380(ra) # 8000026e <consputc>
    800003f2:	bded                	j	800002ec <consoleintr+0x3c>
    if(c != 0 && cons.e-cons.r < INPUT_BUF){
    800003f4:	ee048ce3          	beqz	s1,800002ec <consoleintr+0x3c>
    800003f8:	bf21                	j	80000310 <consoleintr+0x60>
      consputc(c);
    800003fa:	4529                	li	a0,10
    800003fc:	00000097          	auipc	ra,0x0
    80000400:	e72080e7          	jalr	-398(ra) # 8000026e <consputc>
      cons.buf[cons.e++ % INPUT_BUF] = c;
    80000404:	00011797          	auipc	a5,0x11
    80000408:	d7c78793          	addi	a5,a5,-644 # 80011180 <cons>
    8000040c:	0a07a703          	lw	a4,160(a5)
    80000410:	0017069b          	addiw	a3,a4,1
    80000414:	0006861b          	sext.w	a2,a3
    80000418:	0ad7a023          	sw	a3,160(a5)
    8000041c:	07f77713          	andi	a4,a4,127
    80000420:	97ba                	add	a5,a5,a4
    80000422:	4729                	li	a4,10
    80000424:	00e78c23          	sb	a4,24(a5)
        cons.w = cons.e;
    80000428:	00011797          	auipc	a5,0x11
    8000042c:	dec7aa23          	sw	a2,-524(a5) # 8001121c <cons+0x9c>
        wakeup(&cons.r);
    80000430:	00011517          	auipc	a0,0x11
    80000434:	de850513          	addi	a0,a0,-536 # 80011218 <cons+0x98>
    80000438:	00003097          	auipc	ra,0x3
    8000043c:	886080e7          	jalr	-1914(ra) # 80002cbe <wakeup>
    80000440:	b575                	j	800002ec <consoleintr+0x3c>

0000000080000442 <consoleinit>:

void
consoleinit(void)
{
    80000442:	1141                	addi	sp,sp,-16
    80000444:	e406                	sd	ra,8(sp)
    80000446:	e022                	sd	s0,0(sp)
    80000448:	0800                	addi	s0,sp,16
  initlock(&cons.lock, "cons");
    8000044a:	00008597          	auipc	a1,0x8
    8000044e:	bc658593          	addi	a1,a1,-1082 # 80008010 <etext+0x10>
    80000452:	00011517          	auipc	a0,0x11
    80000456:	d2e50513          	addi	a0,a0,-722 # 80011180 <cons>
    8000045a:	00001097          	auipc	ra,0x1
    8000045e:	82a080e7          	jalr	-2006(ra) # 80000c84 <initlock>

  uartinit();
    80000462:	00000097          	auipc	ra,0x0
    80000466:	330080e7          	jalr	816(ra) # 80000792 <uartinit>

  // connect read and write system calls
  // to consoleread and consolewrite.
  devsw[CONSOLE].read = consoleread;
    8000046a:	00021797          	auipc	a5,0x21
    8000046e:	0b678793          	addi	a5,a5,182 # 80021520 <devsw>
    80000472:	00000717          	auipc	a4,0x0
    80000476:	ce470713          	addi	a4,a4,-796 # 80000156 <consoleread>
    8000047a:	eb98                	sd	a4,16(a5)
  devsw[CONSOLE].write = consolewrite;
    8000047c:	00000717          	auipc	a4,0x0
    80000480:	c7870713          	addi	a4,a4,-904 # 800000f4 <consolewrite>
    80000484:	ef98                	sd	a4,24(a5)
}
    80000486:	60a2                	ld	ra,8(sp)
    80000488:	6402                	ld	s0,0(sp)
    8000048a:	0141                	addi	sp,sp,16
    8000048c:	8082                	ret

000000008000048e <printint>:

static char digits[] = "0123456789abcdef";

static void
printint(int xx, int base, int sign)
{
    8000048e:	7179                	addi	sp,sp,-48
    80000490:	f406                	sd	ra,40(sp)
    80000492:	f022                	sd	s0,32(sp)
    80000494:	ec26                	sd	s1,24(sp)
    80000496:	e84a                	sd	s2,16(sp)
    80000498:	1800                	addi	s0,sp,48
  char buf[16];
  int i;
  uint x;

  if(sign && (sign = xx < 0))
    8000049a:	c219                	beqz	a2,800004a0 <printint+0x12>
    8000049c:	08054663          	bltz	a0,80000528 <printint+0x9a>
    x = -xx;
  else
    x = xx;
    800004a0:	2501                	sext.w	a0,a0
    800004a2:	4881                	li	a7,0
    800004a4:	fd040693          	addi	a3,s0,-48

  i = 0;
    800004a8:	4701                	li	a4,0
  do {
    buf[i++] = digits[x % base];
    800004aa:	2581                	sext.w	a1,a1
    800004ac:	00008617          	auipc	a2,0x8
    800004b0:	b9460613          	addi	a2,a2,-1132 # 80008040 <digits>
    800004b4:	883a                	mv	a6,a4
    800004b6:	2705                	addiw	a4,a4,1
    800004b8:	02b577bb          	remuw	a5,a0,a1
    800004bc:	1782                	slli	a5,a5,0x20
    800004be:	9381                	srli	a5,a5,0x20
    800004c0:	97b2                	add	a5,a5,a2
    800004c2:	0007c783          	lbu	a5,0(a5)
    800004c6:	00f68023          	sb	a5,0(a3)
  } while((x /= base) != 0);
    800004ca:	0005079b          	sext.w	a5,a0
    800004ce:	02b5553b          	divuw	a0,a0,a1
    800004d2:	0685                	addi	a3,a3,1
    800004d4:	feb7f0e3          	bgeu	a5,a1,800004b4 <printint+0x26>

  if(sign)
    800004d8:	00088b63          	beqz	a7,800004ee <printint+0x60>
    buf[i++] = '-';
    800004dc:	fe040793          	addi	a5,s0,-32
    800004e0:	973e                	add	a4,a4,a5
    800004e2:	02d00793          	li	a5,45
    800004e6:	fef70823          	sb	a5,-16(a4)
    800004ea:	0028071b          	addiw	a4,a6,2

  while(--i >= 0)
    800004ee:	02e05763          	blez	a4,8000051c <printint+0x8e>
    800004f2:	fd040793          	addi	a5,s0,-48
    800004f6:	00e784b3          	add	s1,a5,a4
    800004fa:	fff78913          	addi	s2,a5,-1
    800004fe:	993a                	add	s2,s2,a4
    80000500:	377d                	addiw	a4,a4,-1
    80000502:	1702                	slli	a4,a4,0x20
    80000504:	9301                	srli	a4,a4,0x20
    80000506:	40e90933          	sub	s2,s2,a4
    consputc(buf[i]);
    8000050a:	fff4c503          	lbu	a0,-1(s1)
    8000050e:	00000097          	auipc	ra,0x0
    80000512:	d60080e7          	jalr	-672(ra) # 8000026e <consputc>
  while(--i >= 0)
    80000516:	14fd                	addi	s1,s1,-1
    80000518:	ff2499e3          	bne	s1,s2,8000050a <printint+0x7c>
}
    8000051c:	70a2                	ld	ra,40(sp)
    8000051e:	7402                	ld	s0,32(sp)
    80000520:	64e2                	ld	s1,24(sp)
    80000522:	6942                	ld	s2,16(sp)
    80000524:	6145                	addi	sp,sp,48
    80000526:	8082                	ret
    x = -xx;
    80000528:	40a0053b          	negw	a0,a0
  if(sign && (sign = xx < 0))
    8000052c:	4885                	li	a7,1
    x = -xx;
    8000052e:	bf9d                	j	800004a4 <printint+0x16>

0000000080000530 <panic>:
    release(&pr.lock);
}

void
panic(char *s)
{
    80000530:	1101                	addi	sp,sp,-32
    80000532:	ec06                	sd	ra,24(sp)
    80000534:	e822                	sd	s0,16(sp)
    80000536:	e426                	sd	s1,8(sp)
    80000538:	1000                	addi	s0,sp,32
    8000053a:	84aa                	mv	s1,a0
  pr.locking = 0;
    8000053c:	00011797          	auipc	a5,0x11
    80000540:	d007a223          	sw	zero,-764(a5) # 80011240 <pr+0x18>
  printf("panic: ");
    80000544:	00008517          	auipc	a0,0x8
    80000548:	ad450513          	addi	a0,a0,-1324 # 80008018 <etext+0x18>
    8000054c:	00000097          	auipc	ra,0x0
    80000550:	02e080e7          	jalr	46(ra) # 8000057a <printf>
  printf(s);
    80000554:	8526                	mv	a0,s1
    80000556:	00000097          	auipc	ra,0x0
    8000055a:	024080e7          	jalr	36(ra) # 8000057a <printf>
  printf("\n");
    8000055e:	00008517          	auipc	a0,0x8
    80000562:	b8250513          	addi	a0,a0,-1150 # 800080e0 <digits+0xa0>
    80000566:	00000097          	auipc	ra,0x0
    8000056a:	014080e7          	jalr	20(ra) # 8000057a <printf>
  panicked = 1; // freeze uart output from other CPUs
    8000056e:	4785                	li	a5,1
    80000570:	00009717          	auipc	a4,0x9
    80000574:	a8f72823          	sw	a5,-1392(a4) # 80009000 <panicked>
  for(;;)
    80000578:	a001                	j	80000578 <panic+0x48>

000000008000057a <printf>:
{
    8000057a:	7131                	addi	sp,sp,-192
    8000057c:	fc86                	sd	ra,120(sp)
    8000057e:	f8a2                	sd	s0,112(sp)
    80000580:	f4a6                	sd	s1,104(sp)
    80000582:	f0ca                	sd	s2,96(sp)
    80000584:	ecce                	sd	s3,88(sp)
    80000586:	e8d2                	sd	s4,80(sp)
    80000588:	e4d6                	sd	s5,72(sp)
    8000058a:	e0da                	sd	s6,64(sp)
    8000058c:	fc5e                	sd	s7,56(sp)
    8000058e:	f862                	sd	s8,48(sp)
    80000590:	f466                	sd	s9,40(sp)
    80000592:	f06a                	sd	s10,32(sp)
    80000594:	ec6e                	sd	s11,24(sp)
    80000596:	0100                	addi	s0,sp,128
    80000598:	8a2a                	mv	s4,a0
    8000059a:	e40c                	sd	a1,8(s0)
    8000059c:	e810                	sd	a2,16(s0)
    8000059e:	ec14                	sd	a3,24(s0)
    800005a0:	f018                	sd	a4,32(s0)
    800005a2:	f41c                	sd	a5,40(s0)
    800005a4:	03043823          	sd	a6,48(s0)
    800005a8:	03143c23          	sd	a7,56(s0)
  locking = pr.locking;
    800005ac:	00011d97          	auipc	s11,0x11
    800005b0:	c94dad83          	lw	s11,-876(s11) # 80011240 <pr+0x18>
  if(locking)
    800005b4:	020d9b63          	bnez	s11,800005ea <printf+0x70>
  if (fmt == 0)
    800005b8:	040a0263          	beqz	s4,800005fc <printf+0x82>
  va_start(ap, fmt);
    800005bc:	00840793          	addi	a5,s0,8
    800005c0:	f8f43423          	sd	a5,-120(s0)
  for(i = 0; (c = fmt[i] & 0xff) != 0; i++){
    800005c4:	000a4503          	lbu	a0,0(s4)
    800005c8:	16050263          	beqz	a0,8000072c <printf+0x1b2>
    800005cc:	4481                	li	s1,0
    if(c != '%'){
    800005ce:	02500a93          	li	s5,37
    switch(c){
    800005d2:	07000b13          	li	s6,112
  consputc('x');
    800005d6:	4d41                	li	s10,16
    consputc(digits[x >> (sizeof(uint64) * 8 - 4)]);
    800005d8:	00008b97          	auipc	s7,0x8
    800005dc:	a68b8b93          	addi	s7,s7,-1432 # 80008040 <digits>
    switch(c){
    800005e0:	07300c93          	li	s9,115
    800005e4:	06400c13          	li	s8,100
    800005e8:	a82d                	j	80000622 <printf+0xa8>
    acquire(&pr.lock);
    800005ea:	00011517          	auipc	a0,0x11
    800005ee:	c3e50513          	addi	a0,a0,-962 # 80011228 <pr>
    800005f2:	00000097          	auipc	ra,0x0
    800005f6:	722080e7          	jalr	1826(ra) # 80000d14 <acquire>
    800005fa:	bf7d                	j	800005b8 <printf+0x3e>
    panic("null fmt");
    800005fc:	00008517          	auipc	a0,0x8
    80000600:	a2c50513          	addi	a0,a0,-1492 # 80008028 <etext+0x28>
    80000604:	00000097          	auipc	ra,0x0
    80000608:	f2c080e7          	jalr	-212(ra) # 80000530 <panic>
      consputc(c);
    8000060c:	00000097          	auipc	ra,0x0
    80000610:	c62080e7          	jalr	-926(ra) # 8000026e <consputc>
  for(i = 0; (c = fmt[i] & 0xff) != 0; i++){
    80000614:	2485                	addiw	s1,s1,1
    80000616:	009a07b3          	add	a5,s4,s1
    8000061a:	0007c503          	lbu	a0,0(a5)
    8000061e:	10050763          	beqz	a0,8000072c <printf+0x1b2>
    if(c != '%'){
    80000622:	ff5515e3          	bne	a0,s5,8000060c <printf+0x92>
    c = fmt[++i] & 0xff;
    80000626:	2485                	addiw	s1,s1,1
    80000628:	009a07b3          	add	a5,s4,s1
    8000062c:	0007c783          	lbu	a5,0(a5)
    80000630:	0007891b          	sext.w	s2,a5
    if(c == 0)
    80000634:	cfe5                	beqz	a5,8000072c <printf+0x1b2>
    switch(c){
    80000636:	05678a63          	beq	a5,s6,8000068a <printf+0x110>
    8000063a:	02fb7663          	bgeu	s6,a5,80000666 <printf+0xec>
    8000063e:	09978963          	beq	a5,s9,800006d0 <printf+0x156>
    80000642:	07800713          	li	a4,120
    80000646:	0ce79863          	bne	a5,a4,80000716 <printf+0x19c>
      printint(va_arg(ap, int), 16, 1);
    8000064a:	f8843783          	ld	a5,-120(s0)
    8000064e:	00878713          	addi	a4,a5,8
    80000652:	f8e43423          	sd	a4,-120(s0)
    80000656:	4605                	li	a2,1
    80000658:	85ea                	mv	a1,s10
    8000065a:	4388                	lw	a0,0(a5)
    8000065c:	00000097          	auipc	ra,0x0
    80000660:	e32080e7          	jalr	-462(ra) # 8000048e <printint>
      break;
    80000664:	bf45                	j	80000614 <printf+0x9a>
    switch(c){
    80000666:	0b578263          	beq	a5,s5,8000070a <printf+0x190>
    8000066a:	0b879663          	bne	a5,s8,80000716 <printf+0x19c>
      printint(va_arg(ap, int), 10, 1);
    8000066e:	f8843783          	ld	a5,-120(s0)
    80000672:	00878713          	addi	a4,a5,8
    80000676:	f8e43423          	sd	a4,-120(s0)
    8000067a:	4605                	li	a2,1
    8000067c:	45a9                	li	a1,10
    8000067e:	4388                	lw	a0,0(a5)
    80000680:	00000097          	auipc	ra,0x0
    80000684:	e0e080e7          	jalr	-498(ra) # 8000048e <printint>
      break;
    80000688:	b771                	j	80000614 <printf+0x9a>
      printptr(va_arg(ap, uint64));
    8000068a:	f8843783          	ld	a5,-120(s0)
    8000068e:	00878713          	addi	a4,a5,8
    80000692:	f8e43423          	sd	a4,-120(s0)
    80000696:	0007b983          	ld	s3,0(a5)
  consputc('0');
    8000069a:	03000513          	li	a0,48
    8000069e:	00000097          	auipc	ra,0x0
    800006a2:	bd0080e7          	jalr	-1072(ra) # 8000026e <consputc>
  consputc('x');
    800006a6:	07800513          	li	a0,120
    800006aa:	00000097          	auipc	ra,0x0
    800006ae:	bc4080e7          	jalr	-1084(ra) # 8000026e <consputc>
    800006b2:	896a                	mv	s2,s10
    consputc(digits[x >> (sizeof(uint64) * 8 - 4)]);
    800006b4:	03c9d793          	srli	a5,s3,0x3c
    800006b8:	97de                	add	a5,a5,s7
    800006ba:	0007c503          	lbu	a0,0(a5)
    800006be:	00000097          	auipc	ra,0x0
    800006c2:	bb0080e7          	jalr	-1104(ra) # 8000026e <consputc>
  for (i = 0; i < (sizeof(uint64) * 2); i++, x <<= 4)
    800006c6:	0992                	slli	s3,s3,0x4
    800006c8:	397d                	addiw	s2,s2,-1
    800006ca:	fe0915e3          	bnez	s2,800006b4 <printf+0x13a>
    800006ce:	b799                	j	80000614 <printf+0x9a>
      if((s = va_arg(ap, char*)) == 0)
    800006d0:	f8843783          	ld	a5,-120(s0)
    800006d4:	00878713          	addi	a4,a5,8
    800006d8:	f8e43423          	sd	a4,-120(s0)
    800006dc:	0007b903          	ld	s2,0(a5)
    800006e0:	00090e63          	beqz	s2,800006fc <printf+0x182>
      for(; *s; s++)
    800006e4:	00094503          	lbu	a0,0(s2)
    800006e8:	d515                	beqz	a0,80000614 <printf+0x9a>
        consputc(*s);
    800006ea:	00000097          	auipc	ra,0x0
    800006ee:	b84080e7          	jalr	-1148(ra) # 8000026e <consputc>
      for(; *s; s++)
    800006f2:	0905                	addi	s2,s2,1
    800006f4:	00094503          	lbu	a0,0(s2)
    800006f8:	f96d                	bnez	a0,800006ea <printf+0x170>
    800006fa:	bf29                	j	80000614 <printf+0x9a>
        s = "(null)";
    800006fc:	00008917          	auipc	s2,0x8
    80000700:	92490913          	addi	s2,s2,-1756 # 80008020 <etext+0x20>
      for(; *s; s++)
    80000704:	02800513          	li	a0,40
    80000708:	b7cd                	j	800006ea <printf+0x170>
      consputc('%');
    8000070a:	8556                	mv	a0,s5
    8000070c:	00000097          	auipc	ra,0x0
    80000710:	b62080e7          	jalr	-1182(ra) # 8000026e <consputc>
      break;
    80000714:	b701                	j	80000614 <printf+0x9a>
      consputc('%');
    80000716:	8556                	mv	a0,s5
    80000718:	00000097          	auipc	ra,0x0
    8000071c:	b56080e7          	jalr	-1194(ra) # 8000026e <consputc>
      consputc(c);
    80000720:	854a                	mv	a0,s2
    80000722:	00000097          	auipc	ra,0x0
    80000726:	b4c080e7          	jalr	-1204(ra) # 8000026e <consputc>
      break;
    8000072a:	b5ed                	j	80000614 <printf+0x9a>
  if(locking)
    8000072c:	020d9163          	bnez	s11,8000074e <printf+0x1d4>
}
    80000730:	70e6                	ld	ra,120(sp)
    80000732:	7446                	ld	s0,112(sp)
    80000734:	74a6                	ld	s1,104(sp)
    80000736:	7906                	ld	s2,96(sp)
    80000738:	69e6                	ld	s3,88(sp)
    8000073a:	6a46                	ld	s4,80(sp)
    8000073c:	6aa6                	ld	s5,72(sp)
    8000073e:	6b06                	ld	s6,64(sp)
    80000740:	7be2                	ld	s7,56(sp)
    80000742:	7c42                	ld	s8,48(sp)
    80000744:	7ca2                	ld	s9,40(sp)
    80000746:	7d02                	ld	s10,32(sp)
    80000748:	6de2                	ld	s11,24(sp)
    8000074a:	6129                	addi	sp,sp,192
    8000074c:	8082                	ret
    release(&pr.lock);
    8000074e:	00011517          	auipc	a0,0x11
    80000752:	ada50513          	addi	a0,a0,-1318 # 80011228 <pr>
    80000756:	00000097          	auipc	ra,0x0
    8000075a:	672080e7          	jalr	1650(ra) # 80000dc8 <release>
}
    8000075e:	bfc9                	j	80000730 <printf+0x1b6>

0000000080000760 <printfinit>:
    ;
}

void
printfinit(void)
{
    80000760:	1101                	addi	sp,sp,-32
    80000762:	ec06                	sd	ra,24(sp)
    80000764:	e822                	sd	s0,16(sp)
    80000766:	e426                	sd	s1,8(sp)
    80000768:	1000                	addi	s0,sp,32
  initlock(&pr.lock, "pr");
    8000076a:	00011497          	auipc	s1,0x11
    8000076e:	abe48493          	addi	s1,s1,-1346 # 80011228 <pr>
    80000772:	00008597          	auipc	a1,0x8
    80000776:	8c658593          	addi	a1,a1,-1850 # 80008038 <etext+0x38>
    8000077a:	8526                	mv	a0,s1
    8000077c:	00000097          	auipc	ra,0x0
    80000780:	508080e7          	jalr	1288(ra) # 80000c84 <initlock>
  pr.locking = 1;
    80000784:	4785                	li	a5,1
    80000786:	cc9c                	sw	a5,24(s1)
}
    80000788:	60e2                	ld	ra,24(sp)
    8000078a:	6442                	ld	s0,16(sp)
    8000078c:	64a2                	ld	s1,8(sp)
    8000078e:	6105                	addi	sp,sp,32
    80000790:	8082                	ret

0000000080000792 <uartinit>:

void uartstart();

void
uartinit(void)
{
    80000792:	1141                	addi	sp,sp,-16
    80000794:	e406                	sd	ra,8(sp)
    80000796:	e022                	sd	s0,0(sp)
    80000798:	0800                	addi	s0,sp,16
  // disable interrupts.
  WriteReg(IER, 0x00);
    8000079a:	100007b7          	lui	a5,0x10000
    8000079e:	000780a3          	sb	zero,1(a5) # 10000001 <_entry-0x6fffffff>

  // special mode to set baud rate.
  WriteReg(LCR, LCR_BAUD_LATCH);
    800007a2:	f8000713          	li	a4,-128
    800007a6:	00e781a3          	sb	a4,3(a5)

  // LSB for baud rate of 38.4K.
  WriteReg(0, 0x03);
    800007aa:	470d                	li	a4,3
    800007ac:	00e78023          	sb	a4,0(a5)

  // MSB for baud rate of 38.4K.
  WriteReg(1, 0x00);
    800007b0:	000780a3          	sb	zero,1(a5)

  // leave set-baud mode,
  // and set word length to 8 bits, no parity.
  WriteReg(LCR, LCR_EIGHT_BITS);
    800007b4:	00e781a3          	sb	a4,3(a5)

  // reset and enable FIFOs.
  WriteReg(FCR, FCR_FIFO_ENABLE | FCR_FIFO_CLEAR);
    800007b8:	469d                	li	a3,7
    800007ba:	00d78123          	sb	a3,2(a5)

  // enable transmit and receive interrupts.
  WriteReg(IER, IER_TX_ENABLE | IER_RX_ENABLE);
    800007be:	00e780a3          	sb	a4,1(a5)

  initlock(&uart_tx_lock, "uart");
    800007c2:	00008597          	auipc	a1,0x8
    800007c6:	89658593          	addi	a1,a1,-1898 # 80008058 <digits+0x18>
    800007ca:	00011517          	auipc	a0,0x11
    800007ce:	a7e50513          	addi	a0,a0,-1410 # 80011248 <uart_tx_lock>
    800007d2:	00000097          	auipc	ra,0x0
    800007d6:	4b2080e7          	jalr	1202(ra) # 80000c84 <initlock>
}
    800007da:	60a2                	ld	ra,8(sp)
    800007dc:	6402                	ld	s0,0(sp)
    800007de:	0141                	addi	sp,sp,16
    800007e0:	8082                	ret

00000000800007e2 <uartputc_sync>:
// use interrupts, for use by kernel printf() and
// to echo characters. it spins waiting for the uart's
// output register to be empty.
void
uartputc_sync(int c)
{
    800007e2:	1101                	addi	sp,sp,-32
    800007e4:	ec06                	sd	ra,24(sp)
    800007e6:	e822                	sd	s0,16(sp)
    800007e8:	e426                	sd	s1,8(sp)
    800007ea:	1000                	addi	s0,sp,32
    800007ec:	84aa                	mv	s1,a0
  push_off();
    800007ee:	00000097          	auipc	ra,0x0
    800007f2:	4da080e7          	jalr	1242(ra) # 80000cc8 <push_off>

  if(panicked){
    800007f6:	00009797          	auipc	a5,0x9
    800007fa:	80a7a783          	lw	a5,-2038(a5) # 80009000 <panicked>
    for(;;)
      ;
  }

  // wait for Transmit Holding Empty to be set in LSR.
  while((ReadReg(LSR) & LSR_TX_IDLE) == 0)
    800007fe:	10000737          	lui	a4,0x10000
  if(panicked){
    80000802:	c391                	beqz	a5,80000806 <uartputc_sync+0x24>
    for(;;)
    80000804:	a001                	j	80000804 <uartputc_sync+0x22>
  while((ReadReg(LSR) & LSR_TX_IDLE) == 0)
    80000806:	00574783          	lbu	a5,5(a4) # 10000005 <_entry-0x6ffffffb>
    8000080a:	0ff7f793          	andi	a5,a5,255
    8000080e:	0207f793          	andi	a5,a5,32
    80000812:	dbf5                	beqz	a5,80000806 <uartputc_sync+0x24>
    ;
  WriteReg(THR, c);
    80000814:	0ff4f793          	andi	a5,s1,255
    80000818:	10000737          	lui	a4,0x10000
    8000081c:	00f70023          	sb	a5,0(a4) # 10000000 <_entry-0x70000000>

  pop_off();
    80000820:	00000097          	auipc	ra,0x0
    80000824:	548080e7          	jalr	1352(ra) # 80000d68 <pop_off>
}
    80000828:	60e2                	ld	ra,24(sp)
    8000082a:	6442                	ld	s0,16(sp)
    8000082c:	64a2                	ld	s1,8(sp)
    8000082e:	6105                	addi	sp,sp,32
    80000830:	8082                	ret

0000000080000832 <uartstart>:
// called from both the top- and bottom-half.
void
uartstart()
{
  while(1){
    if(uart_tx_w == uart_tx_r){
    80000832:	00008717          	auipc	a4,0x8
    80000836:	7d673703          	ld	a4,2006(a4) # 80009008 <uart_tx_r>
    8000083a:	00008797          	auipc	a5,0x8
    8000083e:	7d67b783          	ld	a5,2006(a5) # 80009010 <uart_tx_w>
    80000842:	06e78c63          	beq	a5,a4,800008ba <uartstart+0x88>
{
    80000846:	7139                	addi	sp,sp,-64
    80000848:	fc06                	sd	ra,56(sp)
    8000084a:	f822                	sd	s0,48(sp)
    8000084c:	f426                	sd	s1,40(sp)
    8000084e:	f04a                	sd	s2,32(sp)
    80000850:	ec4e                	sd	s3,24(sp)
    80000852:	e852                	sd	s4,16(sp)
    80000854:	e456                	sd	s5,8(sp)
    80000856:	0080                	addi	s0,sp,64
      // transmit buffer is empty.
      return;
    }
    
    if((ReadReg(LSR) & LSR_TX_IDLE) == 0){
    80000858:	10000937          	lui	s2,0x10000
      // so we cannot give it another byte.
      // it will interrupt when it's ready for a new byte.
      return;
    }
    
    int c = uart_tx_buf[uart_tx_r % UART_TX_BUF_SIZE];
    8000085c:	00011a17          	auipc	s4,0x11
    80000860:	9eca0a13          	addi	s4,s4,-1556 # 80011248 <uart_tx_lock>
    uart_tx_r += 1;
    80000864:	00008497          	auipc	s1,0x8
    80000868:	7a448493          	addi	s1,s1,1956 # 80009008 <uart_tx_r>
    if(uart_tx_w == uart_tx_r){
    8000086c:	00008997          	auipc	s3,0x8
    80000870:	7a498993          	addi	s3,s3,1956 # 80009010 <uart_tx_w>
    if((ReadReg(LSR) & LSR_TX_IDLE) == 0){
    80000874:	00594783          	lbu	a5,5(s2) # 10000005 <_entry-0x6ffffffb>
    80000878:	0ff7f793          	andi	a5,a5,255
    8000087c:	0207f793          	andi	a5,a5,32
    80000880:	c785                	beqz	a5,800008a8 <uartstart+0x76>
    int c = uart_tx_buf[uart_tx_r % UART_TX_BUF_SIZE];
    80000882:	01f77793          	andi	a5,a4,31
    80000886:	97d2                	add	a5,a5,s4
    80000888:	0187ca83          	lbu	s5,24(a5)
    uart_tx_r += 1;
    8000088c:	0705                	addi	a4,a4,1
    8000088e:	e098                	sd	a4,0(s1)
    
    // maybe uartputc() is waiting for space in the buffer.
    wakeup(&uart_tx_r);
    80000890:	8526                	mv	a0,s1
    80000892:	00002097          	auipc	ra,0x2
    80000896:	42c080e7          	jalr	1068(ra) # 80002cbe <wakeup>
    
    WriteReg(THR, c);
    8000089a:	01590023          	sb	s5,0(s2)
    if(uart_tx_w == uart_tx_r){
    8000089e:	6098                	ld	a4,0(s1)
    800008a0:	0009b783          	ld	a5,0(s3)
    800008a4:	fce798e3          	bne	a5,a4,80000874 <uartstart+0x42>
  }
}
    800008a8:	70e2                	ld	ra,56(sp)
    800008aa:	7442                	ld	s0,48(sp)
    800008ac:	74a2                	ld	s1,40(sp)
    800008ae:	7902                	ld	s2,32(sp)
    800008b0:	69e2                	ld	s3,24(sp)
    800008b2:	6a42                	ld	s4,16(sp)
    800008b4:	6aa2                	ld	s5,8(sp)
    800008b6:	6121                	addi	sp,sp,64
    800008b8:	8082                	ret
    800008ba:	8082                	ret

00000000800008bc <uartputc>:
{
    800008bc:	7179                	addi	sp,sp,-48
    800008be:	f406                	sd	ra,40(sp)
    800008c0:	f022                	sd	s0,32(sp)
    800008c2:	ec26                	sd	s1,24(sp)
    800008c4:	e84a                	sd	s2,16(sp)
    800008c6:	e44e                	sd	s3,8(sp)
    800008c8:	e052                	sd	s4,0(sp)
    800008ca:	1800                	addi	s0,sp,48
    800008cc:	89aa                	mv	s3,a0
  acquire(&uart_tx_lock);
    800008ce:	00011517          	auipc	a0,0x11
    800008d2:	97a50513          	addi	a0,a0,-1670 # 80011248 <uart_tx_lock>
    800008d6:	00000097          	auipc	ra,0x0
    800008da:	43e080e7          	jalr	1086(ra) # 80000d14 <acquire>
  if(panicked){
    800008de:	00008797          	auipc	a5,0x8
    800008e2:	7227a783          	lw	a5,1826(a5) # 80009000 <panicked>
    800008e6:	c391                	beqz	a5,800008ea <uartputc+0x2e>
    for(;;)
    800008e8:	a001                	j	800008e8 <uartputc+0x2c>
    if(uart_tx_w == uart_tx_r + UART_TX_BUF_SIZE){
    800008ea:	00008797          	auipc	a5,0x8
    800008ee:	7267b783          	ld	a5,1830(a5) # 80009010 <uart_tx_w>
    800008f2:	00008717          	auipc	a4,0x8
    800008f6:	71673703          	ld	a4,1814(a4) # 80009008 <uart_tx_r>
    800008fa:	02070713          	addi	a4,a4,32
    800008fe:	02f71b63          	bne	a4,a5,80000934 <uartputc+0x78>
      sleep(&uart_tx_r, &uart_tx_lock);
    80000902:	00011a17          	auipc	s4,0x11
    80000906:	946a0a13          	addi	s4,s4,-1722 # 80011248 <uart_tx_lock>
    8000090a:	00008497          	auipc	s1,0x8
    8000090e:	6fe48493          	addi	s1,s1,1790 # 80009008 <uart_tx_r>
    if(uart_tx_w == uart_tx_r + UART_TX_BUF_SIZE){
    80000912:	00008917          	auipc	s2,0x8
    80000916:	6fe90913          	addi	s2,s2,1790 # 80009010 <uart_tx_w>
      sleep(&uart_tx_r, &uart_tx_lock);
    8000091a:	85d2                	mv	a1,s4
    8000091c:	8526                	mv	a0,s1
    8000091e:	00002097          	auipc	ra,0x2
    80000922:	21a080e7          	jalr	538(ra) # 80002b38 <sleep>
    if(uart_tx_w == uart_tx_r + UART_TX_BUF_SIZE){
    80000926:	00093783          	ld	a5,0(s2)
    8000092a:	6098                	ld	a4,0(s1)
    8000092c:	02070713          	addi	a4,a4,32
    80000930:	fef705e3          	beq	a4,a5,8000091a <uartputc+0x5e>
      uart_tx_buf[uart_tx_w % UART_TX_BUF_SIZE] = c;
    80000934:	00011497          	auipc	s1,0x11
    80000938:	91448493          	addi	s1,s1,-1772 # 80011248 <uart_tx_lock>
    8000093c:	01f7f713          	andi	a4,a5,31
    80000940:	9726                	add	a4,a4,s1
    80000942:	01370c23          	sb	s3,24(a4)
      uart_tx_w += 1;
    80000946:	0785                	addi	a5,a5,1
    80000948:	00008717          	auipc	a4,0x8
    8000094c:	6cf73423          	sd	a5,1736(a4) # 80009010 <uart_tx_w>
      uartstart();
    80000950:	00000097          	auipc	ra,0x0
    80000954:	ee2080e7          	jalr	-286(ra) # 80000832 <uartstart>
      release(&uart_tx_lock);
    80000958:	8526                	mv	a0,s1
    8000095a:	00000097          	auipc	ra,0x0
    8000095e:	46e080e7          	jalr	1134(ra) # 80000dc8 <release>
}
    80000962:	70a2                	ld	ra,40(sp)
    80000964:	7402                	ld	s0,32(sp)
    80000966:	64e2                	ld	s1,24(sp)
    80000968:	6942                	ld	s2,16(sp)
    8000096a:	69a2                	ld	s3,8(sp)
    8000096c:	6a02                	ld	s4,0(sp)
    8000096e:	6145                	addi	sp,sp,48
    80000970:	8082                	ret

0000000080000972 <uartgetc>:

// read one input character from the UART.
// return -1 if none is waiting.
int
uartgetc(void)
{
    80000972:	1141                	addi	sp,sp,-16
    80000974:	e422                	sd	s0,8(sp)
    80000976:	0800                	addi	s0,sp,16
  if(ReadReg(LSR) & 0x01){
    80000978:	100007b7          	lui	a5,0x10000
    8000097c:	0057c783          	lbu	a5,5(a5) # 10000005 <_entry-0x6ffffffb>
    80000980:	8b85                	andi	a5,a5,1
    80000982:	cb91                	beqz	a5,80000996 <uartgetc+0x24>
    // input data is ready.
    return ReadReg(RHR);
    80000984:	100007b7          	lui	a5,0x10000
    80000988:	0007c503          	lbu	a0,0(a5) # 10000000 <_entry-0x70000000>
    8000098c:	0ff57513          	andi	a0,a0,255
  } else {
    return -1;
  }
}
    80000990:	6422                	ld	s0,8(sp)
    80000992:	0141                	addi	sp,sp,16
    80000994:	8082                	ret
    return -1;
    80000996:	557d                	li	a0,-1
    80000998:	bfe5                	j	80000990 <uartgetc+0x1e>

000000008000099a <uartintr>:
// handle a uart interrupt, raised because input has
// arrived, or the uart is ready for more output, or
// both. called from trap.c.
void
uartintr(void)
{
    8000099a:	1101                	addi	sp,sp,-32
    8000099c:	ec06                	sd	ra,24(sp)
    8000099e:	e822                	sd	s0,16(sp)
    800009a0:	e426                	sd	s1,8(sp)
    800009a2:	1000                	addi	s0,sp,32
  // read and process incoming characters.
  while(1){
    int c = uartgetc();
    if(c == -1)
    800009a4:	54fd                	li	s1,-1
    int c = uartgetc();
    800009a6:	00000097          	auipc	ra,0x0
    800009aa:	fcc080e7          	jalr	-52(ra) # 80000972 <uartgetc>
    if(c == -1)
    800009ae:	00950763          	beq	a0,s1,800009bc <uartintr+0x22>
      break;
    consoleintr(c);
    800009b2:	00000097          	auipc	ra,0x0
    800009b6:	8fe080e7          	jalr	-1794(ra) # 800002b0 <consoleintr>
  while(1){
    800009ba:	b7f5                	j	800009a6 <uartintr+0xc>
  }

  // send buffered characters.
  acquire(&uart_tx_lock);
    800009bc:	00011497          	auipc	s1,0x11
    800009c0:	88c48493          	addi	s1,s1,-1908 # 80011248 <uart_tx_lock>
    800009c4:	8526                	mv	a0,s1
    800009c6:	00000097          	auipc	ra,0x0
    800009ca:	34e080e7          	jalr	846(ra) # 80000d14 <acquire>
  uartstart();
    800009ce:	00000097          	auipc	ra,0x0
    800009d2:	e64080e7          	jalr	-412(ra) # 80000832 <uartstart>
  release(&uart_tx_lock);
    800009d6:	8526                	mv	a0,s1
    800009d8:	00000097          	auipc	ra,0x0
    800009dc:	3f0080e7          	jalr	1008(ra) # 80000dc8 <release>
}
    800009e0:	60e2                	ld	ra,24(sp)
    800009e2:	6442                	ld	s0,16(sp)
    800009e4:	64a2                	ld	s1,8(sp)
    800009e6:	6105                	addi	sp,sp,32
    800009e8:	8082                	ret

00000000800009ea <kfree>:
// which normally should have been returned by a
// call to kalloc().  (The exception is when
// initializing the allocator; see kinit above.)
void
kfree(void *pa)
{
    800009ea:	1101                	addi	sp,sp,-32
    800009ec:	ec06                	sd	ra,24(sp)
    800009ee:	e822                	sd	s0,16(sp)
    800009f0:	e426                	sd	s1,8(sp)
    800009f2:	e04a                	sd	s2,0(sp)
    800009f4:	1000                	addi	s0,sp,32
  struct run *r;

  if(((uint64)pa % PGSIZE) != 0 || (char*)pa < end || (uint64)pa >= PHYSTOP)
    800009f6:	03451793          	slli	a5,a0,0x34
    800009fa:	ebb9                	bnez	a5,80000a50 <kfree+0x66>
    800009fc:	84aa                	mv	s1,a0
    800009fe:	00025797          	auipc	a5,0x25
    80000a02:	60278793          	addi	a5,a5,1538 # 80026000 <end>
    80000a06:	04f56563          	bltu	a0,a5,80000a50 <kfree+0x66>
    80000a0a:	47c5                	li	a5,17
    80000a0c:	07ee                	slli	a5,a5,0x1b
    80000a0e:	04f57163          	bgeu	a0,a5,80000a50 <kfree+0x66>
    panic("kfree");

  // Fill with junk to catch dangling refs.
  memset(pa, 1, PGSIZE);
    80000a12:	6605                	lui	a2,0x1
    80000a14:	4585                	li	a1,1
    80000a16:	00000097          	auipc	ra,0x0
    80000a1a:	3fa080e7          	jalr	1018(ra) # 80000e10 <memset>

  r = (struct run*)pa;

  acquire(&kmem.lock);
    80000a1e:	00011917          	auipc	s2,0x11
    80000a22:	86290913          	addi	s2,s2,-1950 # 80011280 <kmem>
    80000a26:	854a                	mv	a0,s2
    80000a28:	00000097          	auipc	ra,0x0
    80000a2c:	2ec080e7          	jalr	748(ra) # 80000d14 <acquire>
  r->next = kmem.freelist;
    80000a30:	01893783          	ld	a5,24(s2)
    80000a34:	e09c                	sd	a5,0(s1)
  kmem.freelist = r;
    80000a36:	00993c23          	sd	s1,24(s2)
  release(&kmem.lock);
    80000a3a:	854a                	mv	a0,s2
    80000a3c:	00000097          	auipc	ra,0x0
    80000a40:	38c080e7          	jalr	908(ra) # 80000dc8 <release>
}
    80000a44:	60e2                	ld	ra,24(sp)
    80000a46:	6442                	ld	s0,16(sp)
    80000a48:	64a2                	ld	s1,8(sp)
    80000a4a:	6902                	ld	s2,0(sp)
    80000a4c:	6105                	addi	sp,sp,32
    80000a4e:	8082                	ret
    panic("kfree");
    80000a50:	00007517          	auipc	a0,0x7
    80000a54:	61050513          	addi	a0,a0,1552 # 80008060 <digits+0x20>
    80000a58:	00000097          	auipc	ra,0x0
    80000a5c:	ad8080e7          	jalr	-1320(ra) # 80000530 <panic>

0000000080000a60 <freerange>:
{
    80000a60:	7179                	addi	sp,sp,-48
    80000a62:	f406                	sd	ra,40(sp)
    80000a64:	f022                	sd	s0,32(sp)
    80000a66:	ec26                	sd	s1,24(sp)
    80000a68:	e84a                	sd	s2,16(sp)
    80000a6a:	e44e                	sd	s3,8(sp)
    80000a6c:	e052                	sd	s4,0(sp)
    80000a6e:	1800                	addi	s0,sp,48
  p = (char*)PGROUNDUP((uint64)pa_start);
    80000a70:	6785                	lui	a5,0x1
    80000a72:	fff78493          	addi	s1,a5,-1 # fff <_entry-0x7ffff001>
    80000a76:	94aa                	add	s1,s1,a0
    80000a78:	757d                	lui	a0,0xfffff
    80000a7a:	8ce9                	and	s1,s1,a0
  for(; p + PGSIZE <= (char*)pa_end; p += PGSIZE)
    80000a7c:	94be                	add	s1,s1,a5
    80000a7e:	0095ee63          	bltu	a1,s1,80000a9a <freerange+0x3a>
    80000a82:	892e                	mv	s2,a1
    kfree(p);
    80000a84:	7a7d                	lui	s4,0xfffff
  for(; p + PGSIZE <= (char*)pa_end; p += PGSIZE)
    80000a86:	6985                	lui	s3,0x1
    kfree(p);
    80000a88:	01448533          	add	a0,s1,s4
    80000a8c:	00000097          	auipc	ra,0x0
    80000a90:	f5e080e7          	jalr	-162(ra) # 800009ea <kfree>
  for(; p + PGSIZE <= (char*)pa_end; p += PGSIZE)
    80000a94:	94ce                	add	s1,s1,s3
    80000a96:	fe9979e3          	bgeu	s2,s1,80000a88 <freerange+0x28>
}
    80000a9a:	70a2                	ld	ra,40(sp)
    80000a9c:	7402                	ld	s0,32(sp)
    80000a9e:	64e2                	ld	s1,24(sp)
    80000aa0:	6942                	ld	s2,16(sp)
    80000aa2:	69a2                	ld	s3,8(sp)
    80000aa4:	6a02                	ld	s4,0(sp)
    80000aa6:	6145                	addi	sp,sp,48
    80000aa8:	8082                	ret

0000000080000aaa <kalloc>:
// Allocate one 4096-byte page of physical memory.
// Returns a pointer that the kernel can use.
// Returns 0 if the memory cannot be allocated.
void *
kalloc(void)
{
    80000aaa:	1101                	addi	sp,sp,-32
    80000aac:	ec06                	sd	ra,24(sp)
    80000aae:	e822                	sd	s0,16(sp)
    80000ab0:	e426                	sd	s1,8(sp)
    80000ab2:	1000                	addi	s0,sp,32
  struct run *r;

  acquire(&kmem.lock);
    80000ab4:	00010497          	auipc	s1,0x10
    80000ab8:	7cc48493          	addi	s1,s1,1996 # 80011280 <kmem>
    80000abc:	8526                	mv	a0,s1
    80000abe:	00000097          	auipc	ra,0x0
    80000ac2:	256080e7          	jalr	598(ra) # 80000d14 <acquire>
  r = kmem.freelist;
    80000ac6:	6c84                	ld	s1,24(s1)
  if(r)
    80000ac8:	c885                	beqz	s1,80000af8 <kalloc+0x4e>
    kmem.freelist = r->next;
    80000aca:	609c                	ld	a5,0(s1)
    80000acc:	00010517          	auipc	a0,0x10
    80000ad0:	7b450513          	addi	a0,a0,1972 # 80011280 <kmem>
    80000ad4:	ed1c                	sd	a5,24(a0)
  release(&kmem.lock);
    80000ad6:	00000097          	auipc	ra,0x0
    80000ada:	2f2080e7          	jalr	754(ra) # 80000dc8 <release>

  if(r)
    memset((char*)r, 5, PGSIZE); // fill with junk
    80000ade:	6605                	lui	a2,0x1
    80000ae0:	4595                	li	a1,5
    80000ae2:	8526                	mv	a0,s1
    80000ae4:	00000097          	auipc	ra,0x0
    80000ae8:	32c080e7          	jalr	812(ra) # 80000e10 <memset>
  return (void*)r;
}
    80000aec:	8526                	mv	a0,s1
    80000aee:	60e2                	ld	ra,24(sp)
    80000af0:	6442                	ld	s0,16(sp)
    80000af2:	64a2                	ld	s1,8(sp)
    80000af4:	6105                	addi	sp,sp,32
    80000af6:	8082                	ret
  release(&kmem.lock);
    80000af8:	00010517          	auipc	a0,0x10
    80000afc:	78850513          	addi	a0,a0,1928 # 80011280 <kmem>
    80000b00:	00000097          	auipc	ra,0x0
    80000b04:	2c8080e7          	jalr	712(ra) # 80000dc8 <release>
  if(r)
    80000b08:	b7d5                	j	80000aec <kalloc+0x42>

0000000080000b0a <kvma_free>:
    kvma_free(p);
}

void
kvma_free(void *pa)
{
    80000b0a:	7179                	addi	sp,sp,-48
    80000b0c:	f406                	sd	ra,40(sp)
    80000b0e:	f022                	sd	s0,32(sp)
    80000b10:	ec26                	sd	s1,24(sp)
    80000b12:	e84a                	sd	s2,16(sp)
    80000b14:	e44e                	sd	s3,8(sp)
    80000b16:	1800                	addi	s0,sp,48
  if((char*)pa < end || (uint64)pa >= PHYSTOP)
    80000b18:	00025797          	auipc	a5,0x25
    80000b1c:	4e878793          	addi	a5,a5,1256 # 80026000 <end>
    80000b20:	04f56c63          	bltu	a0,a5,80000b78 <kvma_free+0x6e>
    80000b24:	84aa                	mv	s1,a0
    80000b26:	47c5                	li	a5,17
    80000b28:	07ee                	slli	a5,a5,0x1b
    80000b2a:	04f57763          	bgeu	a0,a5,80000b78 <kvma_free+0x6e>
    panic("kvma_free");
  memset(pa, 0, sizeof(struct vma));
    80000b2e:	04000613          	li	a2,64
    80000b32:	4581                	li	a1,0
    80000b34:	00000097          	auipc	ra,0x0
    80000b38:	2dc080e7          	jalr	732(ra) # 80000e10 <memset>

  struct vma *p = (struct vma *)pa;
  acquire(&kvma.lock);
    80000b3c:	00010997          	auipc	s3,0x10
    80000b40:	74498993          	addi	s3,s3,1860 # 80011280 <kmem>
    80000b44:	00010917          	auipc	s2,0x10
    80000b48:	75c90913          	addi	s2,s2,1884 # 800112a0 <kvma>
    80000b4c:	854a                	mv	a0,s2
    80000b4e:	00000097          	auipc	ra,0x0
    80000b52:	1c6080e7          	jalr	454(ra) # 80000d14 <acquire>
  p->next = kvma.freelist;
    80000b56:	0389b783          	ld	a5,56(s3)
    80000b5a:	fc9c                	sd	a5,56(s1)
  kvma.freelist = p;
    80000b5c:	0299bc23          	sd	s1,56(s3)
  release(&kvma.lock);
    80000b60:	854a                	mv	a0,s2
    80000b62:	00000097          	auipc	ra,0x0
    80000b66:	266080e7          	jalr	614(ra) # 80000dc8 <release>
}
    80000b6a:	70a2                	ld	ra,40(sp)
    80000b6c:	7402                	ld	s0,32(sp)
    80000b6e:	64e2                	ld	s1,24(sp)
    80000b70:	6942                	ld	s2,16(sp)
    80000b72:	69a2                	ld	s3,8(sp)
    80000b74:	6145                	addi	sp,sp,48
    80000b76:	8082                	ret
    panic("kvma_free");
    80000b78:	00007517          	auipc	a0,0x7
    80000b7c:	4f050513          	addi	a0,a0,1264 # 80008068 <digits+0x28>
    80000b80:	00000097          	auipc	ra,0x0
    80000b84:	9b0080e7          	jalr	-1616(ra) # 80000530 <panic>

0000000080000b88 <free_vma_range>:
{
    80000b88:	1101                	addi	sp,sp,-32
    80000b8a:	ec06                	sd	ra,24(sp)
    80000b8c:	e822                	sd	s0,16(sp)
    80000b8e:	e426                	sd	s1,8(sp)
    80000b90:	e04a                	sd	s2,0(sp)
    80000b92:	1000                	addi	s0,sp,32
    80000b94:	892e                	mv	s2,a1
  p = (char *)PGROUNDUP((uint64)pa_start);
    80000b96:	6485                	lui	s1,0x1
    80000b98:	14fd                	addi	s1,s1,-1
    80000b9a:	94aa                	add	s1,s1,a0
    80000b9c:	757d                	lui	a0,0xfffff
    80000b9e:	8ce9                	and	s1,s1,a0
  for (; p + sizeof(struct vma) <= (char *)pa_end; p += sizeof(struct vma))
    80000ba0:	04048493          	addi	s1,s1,64 # 1040 <_entry-0x7fffefc0>
    80000ba4:	0095ec63          	bltu	a1,s1,80000bbc <free_vma_range+0x34>
    kvma_free(p);
    80000ba8:	fc048513          	addi	a0,s1,-64
    80000bac:	00000097          	auipc	ra,0x0
    80000bb0:	f5e080e7          	jalr	-162(ra) # 80000b0a <kvma_free>
  for (; p + sizeof(struct vma) <= (char *)pa_end; p += sizeof(struct vma))
    80000bb4:	04048493          	addi	s1,s1,64
    80000bb8:	fe9978e3          	bgeu	s2,s1,80000ba8 <free_vma_range+0x20>
}
    80000bbc:	60e2                	ld	ra,24(sp)
    80000bbe:	6442                	ld	s0,16(sp)
    80000bc0:	64a2                	ld	s1,8(sp)
    80000bc2:	6902                	ld	s2,0(sp)
    80000bc4:	6105                	addi	sp,sp,32
    80000bc6:	8082                	ret

0000000080000bc8 <kinit>:
{
    80000bc8:	1101                	addi	sp,sp,-32
    80000bca:	ec06                	sd	ra,24(sp)
    80000bcc:	e822                	sd	s0,16(sp)
    80000bce:	e426                	sd	s1,8(sp)
    80000bd0:	1000                	addi	s0,sp,32
  initlock(&kmem.lock, "kmem");
    80000bd2:	00010497          	auipc	s1,0x10
    80000bd6:	6ae48493          	addi	s1,s1,1710 # 80011280 <kmem>
    80000bda:	00007597          	auipc	a1,0x7
    80000bde:	49e58593          	addi	a1,a1,1182 # 80008078 <digits+0x38>
    80000be2:	8526                	mv	a0,s1
    80000be4:	00000097          	auipc	ra,0x0
    80000be8:	0a0080e7          	jalr	160(ra) # 80000c84 <initlock>
  initlock(&kvma.lock, "kvma");
    80000bec:	00007597          	auipc	a1,0x7
    80000bf0:	49458593          	addi	a1,a1,1172 # 80008080 <digits+0x40>
    80000bf4:	00010517          	auipc	a0,0x10
    80000bf8:	6ac50513          	addi	a0,a0,1708 # 800112a0 <kvma>
    80000bfc:	00000097          	auipc	ra,0x0
    80000c00:	088080e7          	jalr	136(ra) # 80000c84 <initlock>
  char *p = (char *)PGROUNDUP((uint64)end);
    80000c04:	00026517          	auipc	a0,0x26
    80000c08:	3fb50513          	addi	a0,a0,1019 # 80026fff <end+0xfff>
    80000c0c:	77fd                	lui	a5,0xfffff
    80000c0e:	8d7d                	and	a0,a0,a5
  kvma.freelist = 0;
    80000c10:	0204bc23          	sd	zero,56(s1)
  free_vma_range(p, p + PGSIZE);
    80000c14:	6485                	lui	s1,0x1
    80000c16:	94aa                	add	s1,s1,a0
    80000c18:	85a6                	mv	a1,s1
    80000c1a:	00000097          	auipc	ra,0x0
    80000c1e:	f6e080e7          	jalr	-146(ra) # 80000b88 <free_vma_range>
  freerange(p + PGSIZE, (void*)PHYSTOP);
    80000c22:	45c5                	li	a1,17
    80000c24:	05ee                	slli	a1,a1,0x1b
    80000c26:	8526                	mv	a0,s1
    80000c28:	00000097          	auipc	ra,0x0
    80000c2c:	e38080e7          	jalr	-456(ra) # 80000a60 <freerange>
}
    80000c30:	60e2                	ld	ra,24(sp)
    80000c32:	6442                	ld	s0,16(sp)
    80000c34:	64a2                	ld	s1,8(sp)
    80000c36:	6105                	addi	sp,sp,32
    80000c38:	8082                	ret

0000000080000c3a <kvma_alloc>:


void *
kvma_alloc(void)
{
    80000c3a:	1101                	addi	sp,sp,-32
    80000c3c:	ec06                	sd	ra,24(sp)
    80000c3e:	e822                	sd	s0,16(sp)
    80000c40:	e426                	sd	s1,8(sp)
    80000c42:	1000                	addi	s0,sp,32
  struct vma *r;

  acquire(&kvma.lock);
    80000c44:	00010517          	auipc	a0,0x10
    80000c48:	65c50513          	addi	a0,a0,1628 # 800112a0 <kvma>
    80000c4c:	00000097          	auipc	ra,0x0
    80000c50:	0c8080e7          	jalr	200(ra) # 80000d14 <acquire>
  r = kvma.freelist;
    80000c54:	00010497          	auipc	s1,0x10
    80000c58:	6644b483          	ld	s1,1636(s1) # 800112b8 <kvma+0x18>
  if (r)
    80000c5c:	c491                	beqz	s1,80000c68 <kvma_alloc+0x2e>
    kvma.freelist = r->next;
    80000c5e:	7c9c                	ld	a5,56(s1)
    80000c60:	00010717          	auipc	a4,0x10
    80000c64:	64f73c23          	sd	a5,1624(a4) # 800112b8 <kvma+0x18>
  release(&kvma.lock);
    80000c68:	00010517          	auipc	a0,0x10
    80000c6c:	63850513          	addi	a0,a0,1592 # 800112a0 <kvma>
    80000c70:	00000097          	auipc	ra,0x0
    80000c74:	158080e7          	jalr	344(ra) # 80000dc8 <release>

  return (void *)r;
    80000c78:	8526                	mv	a0,s1
    80000c7a:	60e2                	ld	ra,24(sp)
    80000c7c:	6442                	ld	s0,16(sp)
    80000c7e:	64a2                	ld	s1,8(sp)
    80000c80:	6105                	addi	sp,sp,32
    80000c82:	8082                	ret

0000000080000c84 <initlock>:
#include "proc.h"
#include "defs.h"

void
initlock(struct spinlock *lk, char *name)
{
    80000c84:	1141                	addi	sp,sp,-16
    80000c86:	e422                	sd	s0,8(sp)
    80000c88:	0800                	addi	s0,sp,16
  lk->name = name;
    80000c8a:	e50c                	sd	a1,8(a0)
  lk->locked = 0;
    80000c8c:	00052023          	sw	zero,0(a0)
  lk->cpu = 0;
    80000c90:	00053823          	sd	zero,16(a0)
}
    80000c94:	6422                	ld	s0,8(sp)
    80000c96:	0141                	addi	sp,sp,16
    80000c98:	8082                	ret

0000000080000c9a <holding>:
// Interrupts must be off.
int
holding(struct spinlock *lk)
{
  int r;
  r = (lk->locked && lk->cpu == mycpu());
    80000c9a:	411c                	lw	a5,0(a0)
    80000c9c:	e399                	bnez	a5,80000ca2 <holding+0x8>
    80000c9e:	4501                	li	a0,0
  return r;
}
    80000ca0:	8082                	ret
{
    80000ca2:	1101                	addi	sp,sp,-32
    80000ca4:	ec06                	sd	ra,24(sp)
    80000ca6:	e822                	sd	s0,16(sp)
    80000ca8:	e426                	sd	s1,8(sp)
    80000caa:	1000                	addi	s0,sp,32
  r = (lk->locked && lk->cpu == mycpu());
    80000cac:	6904                	ld	s1,16(a0)
    80000cae:	00001097          	auipc	ra,0x1
    80000cb2:	50c080e7          	jalr	1292(ra) # 800021ba <mycpu>
    80000cb6:	40a48533          	sub	a0,s1,a0
    80000cba:	00153513          	seqz	a0,a0
}
    80000cbe:	60e2                	ld	ra,24(sp)
    80000cc0:	6442                	ld	s0,16(sp)
    80000cc2:	64a2                	ld	s1,8(sp)
    80000cc4:	6105                	addi	sp,sp,32
    80000cc6:	8082                	ret

0000000080000cc8 <push_off>:
// it takes two pop_off()s to undo two push_off()s.  Also, if interrupts
// are initially off, then push_off, pop_off leaves them off.

void
push_off(void)
{
    80000cc8:	1101                	addi	sp,sp,-32
    80000cca:	ec06                	sd	ra,24(sp)
    80000ccc:	e822                	sd	s0,16(sp)
    80000cce:	e426                	sd	s1,8(sp)
    80000cd0:	1000                	addi	s0,sp,32
  asm volatile("csrr %0, sstatus" : "=r" (x) );
    80000cd2:	100024f3          	csrr	s1,sstatus
    80000cd6:	100027f3          	csrr	a5,sstatus
  w_sstatus(r_sstatus() & ~SSTATUS_SIE);
    80000cda:	9bf5                	andi	a5,a5,-3
  asm volatile("csrw sstatus, %0" : : "r" (x));
    80000cdc:	10079073          	csrw	sstatus,a5
  int old = intr_get();

  intr_off();
  if(mycpu()->noff == 0)
    80000ce0:	00001097          	auipc	ra,0x1
    80000ce4:	4da080e7          	jalr	1242(ra) # 800021ba <mycpu>
    80000ce8:	5d3c                	lw	a5,120(a0)
    80000cea:	cf89                	beqz	a5,80000d04 <push_off+0x3c>
    mycpu()->intena = old;
  mycpu()->noff += 1;
    80000cec:	00001097          	auipc	ra,0x1
    80000cf0:	4ce080e7          	jalr	1230(ra) # 800021ba <mycpu>
    80000cf4:	5d3c                	lw	a5,120(a0)
    80000cf6:	2785                	addiw	a5,a5,1
    80000cf8:	dd3c                	sw	a5,120(a0)
}
    80000cfa:	60e2                	ld	ra,24(sp)
    80000cfc:	6442                	ld	s0,16(sp)
    80000cfe:	64a2                	ld	s1,8(sp)
    80000d00:	6105                	addi	sp,sp,32
    80000d02:	8082                	ret
    mycpu()->intena = old;
    80000d04:	00001097          	auipc	ra,0x1
    80000d08:	4b6080e7          	jalr	1206(ra) # 800021ba <mycpu>
  return (x & SSTATUS_SIE) != 0;
    80000d0c:	8085                	srli	s1,s1,0x1
    80000d0e:	8885                	andi	s1,s1,1
    80000d10:	dd64                	sw	s1,124(a0)
    80000d12:	bfe9                	j	80000cec <push_off+0x24>

0000000080000d14 <acquire>:
{
    80000d14:	1101                	addi	sp,sp,-32
    80000d16:	ec06                	sd	ra,24(sp)
    80000d18:	e822                	sd	s0,16(sp)
    80000d1a:	e426                	sd	s1,8(sp)
    80000d1c:	1000                	addi	s0,sp,32
    80000d1e:	84aa                	mv	s1,a0
  push_off(); // disable interrupts to avoid deadlock.
    80000d20:	00000097          	auipc	ra,0x0
    80000d24:	fa8080e7          	jalr	-88(ra) # 80000cc8 <push_off>
  if(holding(lk))
    80000d28:	8526                	mv	a0,s1
    80000d2a:	00000097          	auipc	ra,0x0
    80000d2e:	f70080e7          	jalr	-144(ra) # 80000c9a <holding>
  while(__sync_lock_test_and_set(&lk->locked, 1) != 0)
    80000d32:	4705                	li	a4,1
  if(holding(lk))
    80000d34:	e115                	bnez	a0,80000d58 <acquire+0x44>
  while(__sync_lock_test_and_set(&lk->locked, 1) != 0)
    80000d36:	87ba                	mv	a5,a4
    80000d38:	0cf4a7af          	amoswap.w.aq	a5,a5,(s1)
    80000d3c:	2781                	sext.w	a5,a5
    80000d3e:	ffe5                	bnez	a5,80000d36 <acquire+0x22>
  __sync_synchronize();
    80000d40:	0ff0000f          	fence
  lk->cpu = mycpu();
    80000d44:	00001097          	auipc	ra,0x1
    80000d48:	476080e7          	jalr	1142(ra) # 800021ba <mycpu>
    80000d4c:	e888                	sd	a0,16(s1)
}
    80000d4e:	60e2                	ld	ra,24(sp)
    80000d50:	6442                	ld	s0,16(sp)
    80000d52:	64a2                	ld	s1,8(sp)
    80000d54:	6105                	addi	sp,sp,32
    80000d56:	8082                	ret
    panic("acquire");
    80000d58:	00007517          	auipc	a0,0x7
    80000d5c:	33050513          	addi	a0,a0,816 # 80008088 <digits+0x48>
    80000d60:	fffff097          	auipc	ra,0xfffff
    80000d64:	7d0080e7          	jalr	2000(ra) # 80000530 <panic>

0000000080000d68 <pop_off>:

void
pop_off(void)
{
    80000d68:	1141                	addi	sp,sp,-16
    80000d6a:	e406                	sd	ra,8(sp)
    80000d6c:	e022                	sd	s0,0(sp)
    80000d6e:	0800                	addi	s0,sp,16
  struct cpu *c = mycpu();
    80000d70:	00001097          	auipc	ra,0x1
    80000d74:	44a080e7          	jalr	1098(ra) # 800021ba <mycpu>
  asm volatile("csrr %0, sstatus" : "=r" (x) );
    80000d78:	100027f3          	csrr	a5,sstatus
  return (x & SSTATUS_SIE) != 0;
    80000d7c:	8b89                	andi	a5,a5,2
  if(intr_get())
    80000d7e:	e78d                	bnez	a5,80000da8 <pop_off+0x40>
    panic("pop_off - interruptible");
  if(c->noff < 1)
    80000d80:	5d3c                	lw	a5,120(a0)
    80000d82:	02f05b63          	blez	a5,80000db8 <pop_off+0x50>
    panic("pop_off");
  c->noff -= 1;
    80000d86:	37fd                	addiw	a5,a5,-1
    80000d88:	0007871b          	sext.w	a4,a5
    80000d8c:	dd3c                	sw	a5,120(a0)
  if(c->noff == 0 && c->intena)
    80000d8e:	eb09                	bnez	a4,80000da0 <pop_off+0x38>
    80000d90:	5d7c                	lw	a5,124(a0)
    80000d92:	c799                	beqz	a5,80000da0 <pop_off+0x38>
  asm volatile("csrr %0, sstatus" : "=r" (x) );
    80000d94:	100027f3          	csrr	a5,sstatus
  w_sstatus(r_sstatus() | SSTATUS_SIE);
    80000d98:	0027e793          	ori	a5,a5,2
  asm volatile("csrw sstatus, %0" : : "r" (x));
    80000d9c:	10079073          	csrw	sstatus,a5
    intr_on();
}
    80000da0:	60a2                	ld	ra,8(sp)
    80000da2:	6402                	ld	s0,0(sp)
    80000da4:	0141                	addi	sp,sp,16
    80000da6:	8082                	ret
    panic("pop_off - interruptible");
    80000da8:	00007517          	auipc	a0,0x7
    80000dac:	2e850513          	addi	a0,a0,744 # 80008090 <digits+0x50>
    80000db0:	fffff097          	auipc	ra,0xfffff
    80000db4:	780080e7          	jalr	1920(ra) # 80000530 <panic>
    panic("pop_off");
    80000db8:	00007517          	auipc	a0,0x7
    80000dbc:	2f050513          	addi	a0,a0,752 # 800080a8 <digits+0x68>
    80000dc0:	fffff097          	auipc	ra,0xfffff
    80000dc4:	770080e7          	jalr	1904(ra) # 80000530 <panic>

0000000080000dc8 <release>:
{
    80000dc8:	1101                	addi	sp,sp,-32
    80000dca:	ec06                	sd	ra,24(sp)
    80000dcc:	e822                	sd	s0,16(sp)
    80000dce:	e426                	sd	s1,8(sp)
    80000dd0:	1000                	addi	s0,sp,32
    80000dd2:	84aa                	mv	s1,a0
  if(!holding(lk))
    80000dd4:	00000097          	auipc	ra,0x0
    80000dd8:	ec6080e7          	jalr	-314(ra) # 80000c9a <holding>
    80000ddc:	c115                	beqz	a0,80000e00 <release+0x38>
  lk->cpu = 0;
    80000dde:	0004b823          	sd	zero,16(s1)
  __sync_synchronize();
    80000de2:	0ff0000f          	fence
  __sync_lock_release(&lk->locked);
    80000de6:	0f50000f          	fence	iorw,ow
    80000dea:	0804a02f          	amoswap.w	zero,zero,(s1)
  pop_off();
    80000dee:	00000097          	auipc	ra,0x0
    80000df2:	f7a080e7          	jalr	-134(ra) # 80000d68 <pop_off>
}
    80000df6:	60e2                	ld	ra,24(sp)
    80000df8:	6442                	ld	s0,16(sp)
    80000dfa:	64a2                	ld	s1,8(sp)
    80000dfc:	6105                	addi	sp,sp,32
    80000dfe:	8082                	ret
    panic("release");
    80000e00:	00007517          	auipc	a0,0x7
    80000e04:	2b050513          	addi	a0,a0,688 # 800080b0 <digits+0x70>
    80000e08:	fffff097          	auipc	ra,0xfffff
    80000e0c:	728080e7          	jalr	1832(ra) # 80000530 <panic>

0000000080000e10 <memset>:
#include "types.h"

void*
memset(void *dst, int c, uint n)
{
    80000e10:	1141                	addi	sp,sp,-16
    80000e12:	e422                	sd	s0,8(sp)
    80000e14:	0800                	addi	s0,sp,16
  char *cdst = (char *) dst;
  int i;
  for(i = 0; i < n; i++){
    80000e16:	ce09                	beqz	a2,80000e30 <memset+0x20>
    80000e18:	87aa                	mv	a5,a0
    80000e1a:	fff6071b          	addiw	a4,a2,-1
    80000e1e:	1702                	slli	a4,a4,0x20
    80000e20:	9301                	srli	a4,a4,0x20
    80000e22:	0705                	addi	a4,a4,1
    80000e24:	972a                	add	a4,a4,a0
    cdst[i] = c;
    80000e26:	00b78023          	sb	a1,0(a5) # fffffffffffff000 <end+0xffffffff7ffd9000>
  for(i = 0; i < n; i++){
    80000e2a:	0785                	addi	a5,a5,1
    80000e2c:	fee79de3          	bne	a5,a4,80000e26 <memset+0x16>
  }
  return dst;
}
    80000e30:	6422                	ld	s0,8(sp)
    80000e32:	0141                	addi	sp,sp,16
    80000e34:	8082                	ret

0000000080000e36 <memcmp>:

int
memcmp(const void *v1, const void *v2, uint n)
{
    80000e36:	1141                	addi	sp,sp,-16
    80000e38:	e422                	sd	s0,8(sp)
    80000e3a:	0800                	addi	s0,sp,16
  const uchar *s1, *s2;

  s1 = v1;
  s2 = v2;
  while(n-- > 0){
    80000e3c:	ca05                	beqz	a2,80000e6c <memcmp+0x36>
    80000e3e:	fff6069b          	addiw	a3,a2,-1
    80000e42:	1682                	slli	a3,a3,0x20
    80000e44:	9281                	srli	a3,a3,0x20
    80000e46:	0685                	addi	a3,a3,1
    80000e48:	96aa                	add	a3,a3,a0
    if(*s1 != *s2)
    80000e4a:	00054783          	lbu	a5,0(a0)
    80000e4e:	0005c703          	lbu	a4,0(a1)
    80000e52:	00e79863          	bne	a5,a4,80000e62 <memcmp+0x2c>
      return *s1 - *s2;
    s1++, s2++;
    80000e56:	0505                	addi	a0,a0,1
    80000e58:	0585                	addi	a1,a1,1
  while(n-- > 0){
    80000e5a:	fed518e3          	bne	a0,a3,80000e4a <memcmp+0x14>
  }

  return 0;
    80000e5e:	4501                	li	a0,0
    80000e60:	a019                	j	80000e66 <memcmp+0x30>
      return *s1 - *s2;
    80000e62:	40e7853b          	subw	a0,a5,a4
}
    80000e66:	6422                	ld	s0,8(sp)
    80000e68:	0141                	addi	sp,sp,16
    80000e6a:	8082                	ret
  return 0;
    80000e6c:	4501                	li	a0,0
    80000e6e:	bfe5                	j	80000e66 <memcmp+0x30>

0000000080000e70 <memmove>:

void*
memmove(void *dst, const void *src, uint n)
{
    80000e70:	1141                	addi	sp,sp,-16
    80000e72:	e422                	sd	s0,8(sp)
    80000e74:	0800                	addi	s0,sp,16
  const char *s;
  char *d;

  s = src;
  d = dst;
  if(s < d && s + n > d){
    80000e76:	00a5f963          	bgeu	a1,a0,80000e88 <memmove+0x18>
    80000e7a:	02061713          	slli	a4,a2,0x20
    80000e7e:	9301                	srli	a4,a4,0x20
    80000e80:	00e587b3          	add	a5,a1,a4
    80000e84:	02f56563          	bltu	a0,a5,80000eae <memmove+0x3e>
    s += n;
    d += n;
    while(n-- > 0)
      *--d = *--s;
  } else
    while(n-- > 0)
    80000e88:	fff6069b          	addiw	a3,a2,-1
    80000e8c:	ce11                	beqz	a2,80000ea8 <memmove+0x38>
    80000e8e:	1682                	slli	a3,a3,0x20
    80000e90:	9281                	srli	a3,a3,0x20
    80000e92:	0685                	addi	a3,a3,1
    80000e94:	96ae                	add	a3,a3,a1
    80000e96:	87aa                	mv	a5,a0
      *d++ = *s++;
    80000e98:	0585                	addi	a1,a1,1
    80000e9a:	0785                	addi	a5,a5,1
    80000e9c:	fff5c703          	lbu	a4,-1(a1)
    80000ea0:	fee78fa3          	sb	a4,-1(a5)
    while(n-- > 0)
    80000ea4:	fed59ae3          	bne	a1,a3,80000e98 <memmove+0x28>

  return dst;
}
    80000ea8:	6422                	ld	s0,8(sp)
    80000eaa:	0141                	addi	sp,sp,16
    80000eac:	8082                	ret
    d += n;
    80000eae:	972a                	add	a4,a4,a0
    while(n-- > 0)
    80000eb0:	fff6069b          	addiw	a3,a2,-1
    80000eb4:	da75                	beqz	a2,80000ea8 <memmove+0x38>
    80000eb6:	02069613          	slli	a2,a3,0x20
    80000eba:	9201                	srli	a2,a2,0x20
    80000ebc:	fff64613          	not	a2,a2
    80000ec0:	963e                	add	a2,a2,a5
      *--d = *--s;
    80000ec2:	17fd                	addi	a5,a5,-1
    80000ec4:	177d                	addi	a4,a4,-1
    80000ec6:	0007c683          	lbu	a3,0(a5)
    80000eca:	00d70023          	sb	a3,0(a4)
    while(n-- > 0)
    80000ece:	fec79ae3          	bne	a5,a2,80000ec2 <memmove+0x52>
    80000ed2:	bfd9                	j	80000ea8 <memmove+0x38>

0000000080000ed4 <memcpy>:

// memcpy exists to placate GCC.  Use memmove.
void*
memcpy(void *dst, const void *src, uint n)
{
    80000ed4:	1141                	addi	sp,sp,-16
    80000ed6:	e406                	sd	ra,8(sp)
    80000ed8:	e022                	sd	s0,0(sp)
    80000eda:	0800                	addi	s0,sp,16
  return memmove(dst, src, n);
    80000edc:	00000097          	auipc	ra,0x0
    80000ee0:	f94080e7          	jalr	-108(ra) # 80000e70 <memmove>
}
    80000ee4:	60a2                	ld	ra,8(sp)
    80000ee6:	6402                	ld	s0,0(sp)
    80000ee8:	0141                	addi	sp,sp,16
    80000eea:	8082                	ret

0000000080000eec <strncmp>:

int
strncmp(const char *p, const char *q, uint n)
{
    80000eec:	1141                	addi	sp,sp,-16
    80000eee:	e422                	sd	s0,8(sp)
    80000ef0:	0800                	addi	s0,sp,16
  while(n > 0 && *p && *p == *q)
    80000ef2:	ce11                	beqz	a2,80000f0e <strncmp+0x22>
    80000ef4:	00054783          	lbu	a5,0(a0)
    80000ef8:	cf89                	beqz	a5,80000f12 <strncmp+0x26>
    80000efa:	0005c703          	lbu	a4,0(a1)
    80000efe:	00f71a63          	bne	a4,a5,80000f12 <strncmp+0x26>
    n--, p++, q++;
    80000f02:	367d                	addiw	a2,a2,-1
    80000f04:	0505                	addi	a0,a0,1
    80000f06:	0585                	addi	a1,a1,1
  while(n > 0 && *p && *p == *q)
    80000f08:	f675                	bnez	a2,80000ef4 <strncmp+0x8>
  if(n == 0)
    return 0;
    80000f0a:	4501                	li	a0,0
    80000f0c:	a809                	j	80000f1e <strncmp+0x32>
    80000f0e:	4501                	li	a0,0
    80000f10:	a039                	j	80000f1e <strncmp+0x32>
  if(n == 0)
    80000f12:	ca09                	beqz	a2,80000f24 <strncmp+0x38>
  return (uchar)*p - (uchar)*q;
    80000f14:	00054503          	lbu	a0,0(a0)
    80000f18:	0005c783          	lbu	a5,0(a1)
    80000f1c:	9d1d                	subw	a0,a0,a5
}
    80000f1e:	6422                	ld	s0,8(sp)
    80000f20:	0141                	addi	sp,sp,16
    80000f22:	8082                	ret
    return 0;
    80000f24:	4501                	li	a0,0
    80000f26:	bfe5                	j	80000f1e <strncmp+0x32>

0000000080000f28 <strncpy>:

char*
strncpy(char *s, const char *t, int n)
{
    80000f28:	1141                	addi	sp,sp,-16
    80000f2a:	e422                	sd	s0,8(sp)
    80000f2c:	0800                	addi	s0,sp,16
  char *os;

  os = s;
  while(n-- > 0 && (*s++ = *t++) != 0)
    80000f2e:	872a                	mv	a4,a0
    80000f30:	8832                	mv	a6,a2
    80000f32:	367d                	addiw	a2,a2,-1
    80000f34:	01005963          	blez	a6,80000f46 <strncpy+0x1e>
    80000f38:	0705                	addi	a4,a4,1
    80000f3a:	0005c783          	lbu	a5,0(a1)
    80000f3e:	fef70fa3          	sb	a5,-1(a4)
    80000f42:	0585                	addi	a1,a1,1
    80000f44:	f7f5                	bnez	a5,80000f30 <strncpy+0x8>
    ;
  while(n-- > 0)
    80000f46:	00c05d63          	blez	a2,80000f60 <strncpy+0x38>
    80000f4a:	86ba                	mv	a3,a4
    *s++ = 0;
    80000f4c:	0685                	addi	a3,a3,1
    80000f4e:	fe068fa3          	sb	zero,-1(a3)
  while(n-- > 0)
    80000f52:	fff6c793          	not	a5,a3
    80000f56:	9fb9                	addw	a5,a5,a4
    80000f58:	010787bb          	addw	a5,a5,a6
    80000f5c:	fef048e3          	bgtz	a5,80000f4c <strncpy+0x24>
  return os;
}
    80000f60:	6422                	ld	s0,8(sp)
    80000f62:	0141                	addi	sp,sp,16
    80000f64:	8082                	ret

0000000080000f66 <safestrcpy>:

// Like strncpy but guaranteed to NUL-terminate.
char*
safestrcpy(char *s, const char *t, int n)
{
    80000f66:	1141                	addi	sp,sp,-16
    80000f68:	e422                	sd	s0,8(sp)
    80000f6a:	0800                	addi	s0,sp,16
  char *os;

  os = s;
  if(n <= 0)
    80000f6c:	02c05363          	blez	a2,80000f92 <safestrcpy+0x2c>
    80000f70:	fff6069b          	addiw	a3,a2,-1
    80000f74:	1682                	slli	a3,a3,0x20
    80000f76:	9281                	srli	a3,a3,0x20
    80000f78:	96ae                	add	a3,a3,a1
    80000f7a:	87aa                	mv	a5,a0
    return os;
  while(--n > 0 && (*s++ = *t++) != 0)
    80000f7c:	00d58963          	beq	a1,a3,80000f8e <safestrcpy+0x28>
    80000f80:	0585                	addi	a1,a1,1
    80000f82:	0785                	addi	a5,a5,1
    80000f84:	fff5c703          	lbu	a4,-1(a1)
    80000f88:	fee78fa3          	sb	a4,-1(a5)
    80000f8c:	fb65                	bnez	a4,80000f7c <safestrcpy+0x16>
    ;
  *s = 0;
    80000f8e:	00078023          	sb	zero,0(a5)
  return os;
}
    80000f92:	6422                	ld	s0,8(sp)
    80000f94:	0141                	addi	sp,sp,16
    80000f96:	8082                	ret

0000000080000f98 <strlen>:

int
strlen(const char *s)
{
    80000f98:	1141                	addi	sp,sp,-16
    80000f9a:	e422                	sd	s0,8(sp)
    80000f9c:	0800                	addi	s0,sp,16
  int n;

  for(n = 0; s[n]; n++)
    80000f9e:	00054783          	lbu	a5,0(a0)
    80000fa2:	cf91                	beqz	a5,80000fbe <strlen+0x26>
    80000fa4:	0505                	addi	a0,a0,1
    80000fa6:	87aa                	mv	a5,a0
    80000fa8:	4685                	li	a3,1
    80000faa:	9e89                	subw	a3,a3,a0
    80000fac:	00f6853b          	addw	a0,a3,a5
    80000fb0:	0785                	addi	a5,a5,1
    80000fb2:	fff7c703          	lbu	a4,-1(a5)
    80000fb6:	fb7d                	bnez	a4,80000fac <strlen+0x14>
    ;
  return n;
}
    80000fb8:	6422                	ld	s0,8(sp)
    80000fba:	0141                	addi	sp,sp,16
    80000fbc:	8082                	ret
  for(n = 0; s[n]; n++)
    80000fbe:	4501                	li	a0,0
    80000fc0:	bfe5                	j	80000fb8 <strlen+0x20>

0000000080000fc2 <main>:
volatile static int started = 0;

// start() jumps here in supervisor mode on all CPUs.
void
main()
{
    80000fc2:	1141                	addi	sp,sp,-16
    80000fc4:	e406                	sd	ra,8(sp)
    80000fc6:	e022                	sd	s0,0(sp)
    80000fc8:	0800                	addi	s0,sp,16
  if(cpuid() == 0){
    80000fca:	00001097          	auipc	ra,0x1
    80000fce:	1e0080e7          	jalr	480(ra) # 800021aa <cpuid>
    virtio_disk_init(); // emulated hard disk
    userinit();      // first user process
    __sync_synchronize();
    started = 1;
  } else {
    while(started == 0)
    80000fd2:	00008717          	auipc	a4,0x8
    80000fd6:	04670713          	addi	a4,a4,70 # 80009018 <started>
  if(cpuid() == 0){
    80000fda:	c139                	beqz	a0,80001020 <main+0x5e>
    while(started == 0)
    80000fdc:	431c                	lw	a5,0(a4)
    80000fde:	2781                	sext.w	a5,a5
    80000fe0:	dff5                	beqz	a5,80000fdc <main+0x1a>
      ;
    __sync_synchronize();
    80000fe2:	0ff0000f          	fence
    printf("hart %d starting\n", cpuid());
    80000fe6:	00001097          	auipc	ra,0x1
    80000fea:	1c4080e7          	jalr	452(ra) # 800021aa <cpuid>
    80000fee:	85aa                	mv	a1,a0
    80000ff0:	00007517          	auipc	a0,0x7
    80000ff4:	0e050513          	addi	a0,a0,224 # 800080d0 <digits+0x90>
    80000ff8:	fffff097          	auipc	ra,0xfffff
    80000ffc:	582080e7          	jalr	1410(ra) # 8000057a <printf>
    kvminithart();    // turn on paging
    80001000:	00000097          	auipc	ra,0x0
    80001004:	0d8080e7          	jalr	216(ra) # 800010d8 <kvminithart>
    trapinithart();   // install kernel trap vector
    80001008:	00002097          	auipc	ra,0x2
    8000100c:	f7e080e7          	jalr	-130(ra) # 80002f86 <trapinithart>
    plicinithart();   // ask PLIC for device interrupts
    80001010:	00005097          	auipc	ra,0x5
    80001014:	540080e7          	jalr	1344(ra) # 80006550 <plicinithart>
  }

  scheduler();        
    80001018:	00001097          	auipc	ra,0x1
    8000101c:	7d6080e7          	jalr	2006(ra) # 800027ee <scheduler>
    consoleinit();
    80001020:	fffff097          	auipc	ra,0xfffff
    80001024:	422080e7          	jalr	1058(ra) # 80000442 <consoleinit>
    printfinit();
    80001028:	fffff097          	auipc	ra,0xfffff
    8000102c:	738080e7          	jalr	1848(ra) # 80000760 <printfinit>
    printf("\n");
    80001030:	00007517          	auipc	a0,0x7
    80001034:	0b050513          	addi	a0,a0,176 # 800080e0 <digits+0xa0>
    80001038:	fffff097          	auipc	ra,0xfffff
    8000103c:	542080e7          	jalr	1346(ra) # 8000057a <printf>
    printf("xv6 kernel is booting\n");
    80001040:	00007517          	auipc	a0,0x7
    80001044:	07850513          	addi	a0,a0,120 # 800080b8 <digits+0x78>
    80001048:	fffff097          	auipc	ra,0xfffff
    8000104c:	532080e7          	jalr	1330(ra) # 8000057a <printf>
    printf("\n");
    80001050:	00007517          	auipc	a0,0x7
    80001054:	09050513          	addi	a0,a0,144 # 800080e0 <digits+0xa0>
    80001058:	fffff097          	auipc	ra,0xfffff
    8000105c:	522080e7          	jalr	1314(ra) # 8000057a <printf>
    kinit();         // physical page allocator
    80001060:	00000097          	auipc	ra,0x0
    80001064:	b68080e7          	jalr	-1176(ra) # 80000bc8 <kinit>
    kvminit();       // create kernel page table
    80001068:	00000097          	auipc	ra,0x0
    8000106c:	310080e7          	jalr	784(ra) # 80001378 <kvminit>
    kvminithart();   // turn on paging
    80001070:	00000097          	auipc	ra,0x0
    80001074:	068080e7          	jalr	104(ra) # 800010d8 <kvminithart>
    procinit();      // process table
    80001078:	00001097          	auipc	ra,0x1
    8000107c:	09a080e7          	jalr	154(ra) # 80002112 <procinit>
    trapinit();      // trap vectors
    80001080:	00002097          	auipc	ra,0x2
    80001084:	ede080e7          	jalr	-290(ra) # 80002f5e <trapinit>
    trapinithart();  // install kernel trap vector
    80001088:	00002097          	auipc	ra,0x2
    8000108c:	efe080e7          	jalr	-258(ra) # 80002f86 <trapinithart>
    plicinit();      // set up interrupt controller
    80001090:	00005097          	auipc	ra,0x5
    80001094:	4aa080e7          	jalr	1194(ra) # 8000653a <plicinit>
    plicinithart();  // ask PLIC for device interrupts
    80001098:	00005097          	auipc	ra,0x5
    8000109c:	4b8080e7          	jalr	1208(ra) # 80006550 <plicinithart>
    binit();         // buffer cache
    800010a0:	00002097          	auipc	ra,0x2
    800010a4:	68e080e7          	jalr	1678(ra) # 8000372e <binit>
    iinit();         // inode cache
    800010a8:	00003097          	auipc	ra,0x3
    800010ac:	d1e080e7          	jalr	-738(ra) # 80003dc6 <iinit>
    fileinit();      // file table
    800010b0:	00004097          	auipc	ra,0x4
    800010b4:	cd0080e7          	jalr	-816(ra) # 80004d80 <fileinit>
    virtio_disk_init(); // emulated hard disk
    800010b8:	00005097          	auipc	ra,0x5
    800010bc:	5ba080e7          	jalr	1466(ra) # 80006672 <virtio_disk_init>
    userinit();      // first user process
    800010c0:	00001097          	auipc	ra,0x1
    800010c4:	3e4080e7          	jalr	996(ra) # 800024a4 <userinit>
    __sync_synchronize();
    800010c8:	0ff0000f          	fence
    started = 1;
    800010cc:	4785                	li	a5,1
    800010ce:	00008717          	auipc	a4,0x8
    800010d2:	f4f72523          	sw	a5,-182(a4) # 80009018 <started>
    800010d6:	b789                	j	80001018 <main+0x56>

00000000800010d8 <kvminithart>:

// Switch h/w page table register to the kernel's page table,
// and enable paging.
void
kvminithart()
{
    800010d8:	1141                	addi	sp,sp,-16
    800010da:	e422                	sd	s0,8(sp)
    800010dc:	0800                	addi	s0,sp,16
  w_satp(MAKE_SATP(kernel_pagetable));
    800010de:	00008797          	auipc	a5,0x8
    800010e2:	f427b783          	ld	a5,-190(a5) # 80009020 <kernel_pagetable>
    800010e6:	83b1                	srli	a5,a5,0xc
    800010e8:	577d                	li	a4,-1
    800010ea:	177e                	slli	a4,a4,0x3f
    800010ec:	8fd9                	or	a5,a5,a4
  asm volatile("csrw satp, %0" : : "r" (x));
    800010ee:	18079073          	csrw	satp,a5
// flush the TLB.
static inline void
sfence_vma()
{
  // the zero, zero means flush all TLB entries.
  asm volatile("sfence.vma zero, zero");
    800010f2:	12000073          	sfence.vma
  sfence_vma();
}
    800010f6:	6422                	ld	s0,8(sp)
    800010f8:	0141                	addi	sp,sp,16
    800010fa:	8082                	ret

00000000800010fc <walk>:
//   21..29 -- 9 bits of level-1 index.
//   12..20 -- 9 bits of level-0 index.
//    0..11 -- 12 bits of byte offset within the page.
pte_t *
walk(pagetable_t pagetable, uint64 va, int alloc)
{
    800010fc:	7139                	addi	sp,sp,-64
    800010fe:	fc06                	sd	ra,56(sp)
    80001100:	f822                	sd	s0,48(sp)
    80001102:	f426                	sd	s1,40(sp)
    80001104:	f04a                	sd	s2,32(sp)
    80001106:	ec4e                	sd	s3,24(sp)
    80001108:	e852                	sd	s4,16(sp)
    8000110a:	e456                	sd	s5,8(sp)
    8000110c:	e05a                	sd	s6,0(sp)
    8000110e:	0080                	addi	s0,sp,64
    80001110:	84aa                	mv	s1,a0
    80001112:	89ae                	mv	s3,a1
    80001114:	8ab2                	mv	s5,a2
  if(va >= MAXVA)
    80001116:	57fd                	li	a5,-1
    80001118:	83e9                	srli	a5,a5,0x1a
    8000111a:	4a79                	li	s4,30
    panic("walk");

  for(int level = 2; level > 0; level--) {
    8000111c:	4b31                	li	s6,12
  if(va >= MAXVA)
    8000111e:	04b7f263          	bgeu	a5,a1,80001162 <walk+0x66>
    panic("walk");
    80001122:	00007517          	auipc	a0,0x7
    80001126:	fc650513          	addi	a0,a0,-58 # 800080e8 <digits+0xa8>
    8000112a:	fffff097          	auipc	ra,0xfffff
    8000112e:	406080e7          	jalr	1030(ra) # 80000530 <panic>
    pte_t *pte = &pagetable[PX(level, va)];
    if(*pte & PTE_V) {
      pagetable = (pagetable_t)PTE2PA(*pte);
    } else {
      if(!alloc || (pagetable = (pde_t*)kalloc()) == 0)
    80001132:	060a8663          	beqz	s5,8000119e <walk+0xa2>
    80001136:	00000097          	auipc	ra,0x0
    8000113a:	974080e7          	jalr	-1676(ra) # 80000aaa <kalloc>
    8000113e:	84aa                	mv	s1,a0
    80001140:	c529                	beqz	a0,8000118a <walk+0x8e>
        return 0;
      memset(pagetable, 0, PGSIZE);
    80001142:	6605                	lui	a2,0x1
    80001144:	4581                	li	a1,0
    80001146:	00000097          	auipc	ra,0x0
    8000114a:	cca080e7          	jalr	-822(ra) # 80000e10 <memset>
      *pte = PA2PTE(pagetable) | PTE_V;
    8000114e:	00c4d793          	srli	a5,s1,0xc
    80001152:	07aa                	slli	a5,a5,0xa
    80001154:	0017e793          	ori	a5,a5,1
    80001158:	00f93023          	sd	a5,0(s2)
  for(int level = 2; level > 0; level--) {
    8000115c:	3a5d                	addiw	s4,s4,-9
    8000115e:	036a0063          	beq	s4,s6,8000117e <walk+0x82>
    pte_t *pte = &pagetable[PX(level, va)];
    80001162:	0149d933          	srl	s2,s3,s4
    80001166:	1ff97913          	andi	s2,s2,511
    8000116a:	090e                	slli	s2,s2,0x3
    8000116c:	9926                	add	s2,s2,s1
    if(*pte & PTE_V) {
    8000116e:	00093483          	ld	s1,0(s2)
    80001172:	0014f793          	andi	a5,s1,1
    80001176:	dfd5                	beqz	a5,80001132 <walk+0x36>
      pagetable = (pagetable_t)PTE2PA(*pte);
    80001178:	80a9                	srli	s1,s1,0xa
    8000117a:	04b2                	slli	s1,s1,0xc
    8000117c:	b7c5                	j	8000115c <walk+0x60>
    }
  }
  return &pagetable[PX(0, va)];
    8000117e:	00c9d513          	srli	a0,s3,0xc
    80001182:	1ff57513          	andi	a0,a0,511
    80001186:	050e                	slli	a0,a0,0x3
    80001188:	9526                	add	a0,a0,s1
}
    8000118a:	70e2                	ld	ra,56(sp)
    8000118c:	7442                	ld	s0,48(sp)
    8000118e:	74a2                	ld	s1,40(sp)
    80001190:	7902                	ld	s2,32(sp)
    80001192:	69e2                	ld	s3,24(sp)
    80001194:	6a42                	ld	s4,16(sp)
    80001196:	6aa2                	ld	s5,8(sp)
    80001198:	6b02                	ld	s6,0(sp)
    8000119a:	6121                	addi	sp,sp,64
    8000119c:	8082                	ret
        return 0;
    8000119e:	4501                	li	a0,0
    800011a0:	b7ed                	j	8000118a <walk+0x8e>

00000000800011a2 <walkaddr>:
walkaddr(pagetable_t pagetable, uint64 va)
{
  pte_t *pte;
  uint64 pa;

  if(va >= MAXVA)
    800011a2:	57fd                	li	a5,-1
    800011a4:	83e9                	srli	a5,a5,0x1a
    800011a6:	00b7f463          	bgeu	a5,a1,800011ae <walkaddr+0xc>
    return 0;
    800011aa:	4501                	li	a0,0
    return 0;
  if((*pte & PTE_U) == 0)
    return 0;
  pa = PTE2PA(*pte);
  return pa;
}
    800011ac:	8082                	ret
{
    800011ae:	1141                	addi	sp,sp,-16
    800011b0:	e406                	sd	ra,8(sp)
    800011b2:	e022                	sd	s0,0(sp)
    800011b4:	0800                	addi	s0,sp,16
  pte = walk(pagetable, va, 0);
    800011b6:	4601                	li	a2,0
    800011b8:	00000097          	auipc	ra,0x0
    800011bc:	f44080e7          	jalr	-188(ra) # 800010fc <walk>
  if(pte == 0)
    800011c0:	c105                	beqz	a0,800011e0 <walkaddr+0x3e>
  if((*pte & PTE_V) == 0)
    800011c2:	611c                	ld	a5,0(a0)
  if((*pte & PTE_U) == 0)
    800011c4:	0117f693          	andi	a3,a5,17
    800011c8:	4745                	li	a4,17
    return 0;
    800011ca:	4501                	li	a0,0
  if((*pte & PTE_U) == 0)
    800011cc:	00e68663          	beq	a3,a4,800011d8 <walkaddr+0x36>
}
    800011d0:	60a2                	ld	ra,8(sp)
    800011d2:	6402                	ld	s0,0(sp)
    800011d4:	0141                	addi	sp,sp,16
    800011d6:	8082                	ret
  pa = PTE2PA(*pte);
    800011d8:	00a7d513          	srli	a0,a5,0xa
    800011dc:	0532                	slli	a0,a0,0xc
  return pa;
    800011de:	bfcd                	j	800011d0 <walkaddr+0x2e>
    return 0;
    800011e0:	4501                	li	a0,0
    800011e2:	b7fd                	j	800011d0 <walkaddr+0x2e>

00000000800011e4 <mappages>:
// physical addresses starting at pa. va and size might not
// be page-aligned. Returns 0 on success, -1 if walk() couldn't
// allocate a needed page-table page.
int
mappages(pagetable_t pagetable, uint64 va, uint64 size, uint64 pa, int perm)
{
    800011e4:	715d                	addi	sp,sp,-80
    800011e6:	e486                	sd	ra,72(sp)
    800011e8:	e0a2                	sd	s0,64(sp)
    800011ea:	fc26                	sd	s1,56(sp)
    800011ec:	f84a                	sd	s2,48(sp)
    800011ee:	f44e                	sd	s3,40(sp)
    800011f0:	f052                	sd	s4,32(sp)
    800011f2:	ec56                	sd	s5,24(sp)
    800011f4:	e85a                	sd	s6,16(sp)
    800011f6:	e45e                	sd	s7,8(sp)
    800011f8:	0880                	addi	s0,sp,80
    800011fa:	8aaa                	mv	s5,a0
    800011fc:	8b3a                	mv	s6,a4
  uint64 a, last;
  pte_t *pte;

  a = PGROUNDDOWN(va);
    800011fe:	777d                	lui	a4,0xfffff
    80001200:	00e5f7b3          	and	a5,a1,a4
  last = PGROUNDDOWN(va + size - 1);
    80001204:	167d                	addi	a2,a2,-1
    80001206:	00b609b3          	add	s3,a2,a1
    8000120a:	00e9f9b3          	and	s3,s3,a4
  a = PGROUNDDOWN(va);
    8000120e:	893e                	mv	s2,a5
    80001210:	40f68a33          	sub	s4,a3,a5
    if(*pte & PTE_V)
      panic("remap");
    *pte = PA2PTE(pa) | perm | PTE_V;
    if(a == last)
      break;
    a += PGSIZE;
    80001214:	6b85                	lui	s7,0x1
    80001216:	012a04b3          	add	s1,s4,s2
    if((pte = walk(pagetable, a, 1)) == 0)
    8000121a:	4605                	li	a2,1
    8000121c:	85ca                	mv	a1,s2
    8000121e:	8556                	mv	a0,s5
    80001220:	00000097          	auipc	ra,0x0
    80001224:	edc080e7          	jalr	-292(ra) # 800010fc <walk>
    80001228:	c51d                	beqz	a0,80001256 <mappages+0x72>
    if(*pte & PTE_V)
    8000122a:	611c                	ld	a5,0(a0)
    8000122c:	8b85                	andi	a5,a5,1
    8000122e:	ef81                	bnez	a5,80001246 <mappages+0x62>
    *pte = PA2PTE(pa) | perm | PTE_V;
    80001230:	80b1                	srli	s1,s1,0xc
    80001232:	04aa                	slli	s1,s1,0xa
    80001234:	0164e4b3          	or	s1,s1,s6
    80001238:	0014e493          	ori	s1,s1,1
    8000123c:	e104                	sd	s1,0(a0)
    if(a == last)
    8000123e:	03390863          	beq	s2,s3,8000126e <mappages+0x8a>
    a += PGSIZE;
    80001242:	995e                	add	s2,s2,s7
    if((pte = walk(pagetable, a, 1)) == 0)
    80001244:	bfc9                	j	80001216 <mappages+0x32>
      panic("remap");
    80001246:	00007517          	auipc	a0,0x7
    8000124a:	eaa50513          	addi	a0,a0,-342 # 800080f0 <digits+0xb0>
    8000124e:	fffff097          	auipc	ra,0xfffff
    80001252:	2e2080e7          	jalr	738(ra) # 80000530 <panic>
      return -1;
    80001256:	557d                	li	a0,-1
    pa += PGSIZE;
  }
  return 0;
}
    80001258:	60a6                	ld	ra,72(sp)
    8000125a:	6406                	ld	s0,64(sp)
    8000125c:	74e2                	ld	s1,56(sp)
    8000125e:	7942                	ld	s2,48(sp)
    80001260:	79a2                	ld	s3,40(sp)
    80001262:	7a02                	ld	s4,32(sp)
    80001264:	6ae2                	ld	s5,24(sp)
    80001266:	6b42                	ld	s6,16(sp)
    80001268:	6ba2                	ld	s7,8(sp)
    8000126a:	6161                	addi	sp,sp,80
    8000126c:	8082                	ret
  return 0;
    8000126e:	4501                	li	a0,0
    80001270:	b7e5                	j	80001258 <mappages+0x74>

0000000080001272 <kvmmap>:
{
    80001272:	1141                	addi	sp,sp,-16
    80001274:	e406                	sd	ra,8(sp)
    80001276:	e022                	sd	s0,0(sp)
    80001278:	0800                	addi	s0,sp,16
    8000127a:	87b6                	mv	a5,a3
  if(mappages(kpgtbl, va, sz, pa, perm) != 0)
    8000127c:	86b2                	mv	a3,a2
    8000127e:	863e                	mv	a2,a5
    80001280:	00000097          	auipc	ra,0x0
    80001284:	f64080e7          	jalr	-156(ra) # 800011e4 <mappages>
    80001288:	e509                	bnez	a0,80001292 <kvmmap+0x20>
}
    8000128a:	60a2                	ld	ra,8(sp)
    8000128c:	6402                	ld	s0,0(sp)
    8000128e:	0141                	addi	sp,sp,16
    80001290:	8082                	ret
    panic("kvmmap");
    80001292:	00007517          	auipc	a0,0x7
    80001296:	e6650513          	addi	a0,a0,-410 # 800080f8 <digits+0xb8>
    8000129a:	fffff097          	auipc	ra,0xfffff
    8000129e:	296080e7          	jalr	662(ra) # 80000530 <panic>

00000000800012a2 <kvmmake>:
{
    800012a2:	1101                	addi	sp,sp,-32
    800012a4:	ec06                	sd	ra,24(sp)
    800012a6:	e822                	sd	s0,16(sp)
    800012a8:	e426                	sd	s1,8(sp)
    800012aa:	e04a                	sd	s2,0(sp)
    800012ac:	1000                	addi	s0,sp,32
  kpgtbl = (pagetable_t) kalloc();
    800012ae:	fffff097          	auipc	ra,0xfffff
    800012b2:	7fc080e7          	jalr	2044(ra) # 80000aaa <kalloc>
    800012b6:	84aa                	mv	s1,a0
  memset(kpgtbl, 0, PGSIZE);
    800012b8:	6605                	lui	a2,0x1
    800012ba:	4581                	li	a1,0
    800012bc:	00000097          	auipc	ra,0x0
    800012c0:	b54080e7          	jalr	-1196(ra) # 80000e10 <memset>
  kvmmap(kpgtbl, UART0, UART0, PGSIZE, PTE_R | PTE_W);
    800012c4:	4719                	li	a4,6
    800012c6:	6685                	lui	a3,0x1
    800012c8:	10000637          	lui	a2,0x10000
    800012cc:	100005b7          	lui	a1,0x10000
    800012d0:	8526                	mv	a0,s1
    800012d2:	00000097          	auipc	ra,0x0
    800012d6:	fa0080e7          	jalr	-96(ra) # 80001272 <kvmmap>
  kvmmap(kpgtbl, VIRTIO0, VIRTIO0, PGSIZE, PTE_R | PTE_W);
    800012da:	4719                	li	a4,6
    800012dc:	6685                	lui	a3,0x1
    800012de:	10001637          	lui	a2,0x10001
    800012e2:	100015b7          	lui	a1,0x10001
    800012e6:	8526                	mv	a0,s1
    800012e8:	00000097          	auipc	ra,0x0
    800012ec:	f8a080e7          	jalr	-118(ra) # 80001272 <kvmmap>
  kvmmap(kpgtbl, PLIC, PLIC, 0x400000, PTE_R | PTE_W);
    800012f0:	4719                	li	a4,6
    800012f2:	004006b7          	lui	a3,0x400
    800012f6:	0c000637          	lui	a2,0xc000
    800012fa:	0c0005b7          	lui	a1,0xc000
    800012fe:	8526                	mv	a0,s1
    80001300:	00000097          	auipc	ra,0x0
    80001304:	f72080e7          	jalr	-142(ra) # 80001272 <kvmmap>
  kvmmap(kpgtbl, KERNBASE, KERNBASE, (uint64)etext-KERNBASE, PTE_R | PTE_X);
    80001308:	00007917          	auipc	s2,0x7
    8000130c:	cf890913          	addi	s2,s2,-776 # 80008000 <etext>
    80001310:	4729                	li	a4,10
    80001312:	80007697          	auipc	a3,0x80007
    80001316:	cee68693          	addi	a3,a3,-786 # 8000 <_entry-0x7fff8000>
    8000131a:	4605                	li	a2,1
    8000131c:	067e                	slli	a2,a2,0x1f
    8000131e:	85b2                	mv	a1,a2
    80001320:	8526                	mv	a0,s1
    80001322:	00000097          	auipc	ra,0x0
    80001326:	f50080e7          	jalr	-176(ra) # 80001272 <kvmmap>
  kvmmap(kpgtbl, (uint64)etext, (uint64)etext, PHYSTOP-(uint64)etext, PTE_R | PTE_W);
    8000132a:	4719                	li	a4,6
    8000132c:	46c5                	li	a3,17
    8000132e:	06ee                	slli	a3,a3,0x1b
    80001330:	412686b3          	sub	a3,a3,s2
    80001334:	864a                	mv	a2,s2
    80001336:	85ca                	mv	a1,s2
    80001338:	8526                	mv	a0,s1
    8000133a:	00000097          	auipc	ra,0x0
    8000133e:	f38080e7          	jalr	-200(ra) # 80001272 <kvmmap>
  kvmmap(kpgtbl, TRAMPOLINE, (uint64)trampoline, PGSIZE, PTE_R | PTE_X);
    80001342:	4729                	li	a4,10
    80001344:	6685                	lui	a3,0x1
    80001346:	00006617          	auipc	a2,0x6
    8000134a:	cba60613          	addi	a2,a2,-838 # 80007000 <_trampoline>
    8000134e:	040005b7          	lui	a1,0x4000
    80001352:	15fd                	addi	a1,a1,-1
    80001354:	05b2                	slli	a1,a1,0xc
    80001356:	8526                	mv	a0,s1
    80001358:	00000097          	auipc	ra,0x0
    8000135c:	f1a080e7          	jalr	-230(ra) # 80001272 <kvmmap>
  proc_mapstacks(kpgtbl);
    80001360:	8526                	mv	a0,s1
    80001362:	00001097          	auipc	ra,0x1
    80001366:	d1a080e7          	jalr	-742(ra) # 8000207c <proc_mapstacks>
}
    8000136a:	8526                	mv	a0,s1
    8000136c:	60e2                	ld	ra,24(sp)
    8000136e:	6442                	ld	s0,16(sp)
    80001370:	64a2                	ld	s1,8(sp)
    80001372:	6902                	ld	s2,0(sp)
    80001374:	6105                	addi	sp,sp,32
    80001376:	8082                	ret

0000000080001378 <kvminit>:
{
    80001378:	1141                	addi	sp,sp,-16
    8000137a:	e406                	sd	ra,8(sp)
    8000137c:	e022                	sd	s0,0(sp)
    8000137e:	0800                	addi	s0,sp,16
  kernel_pagetable = kvmmake();
    80001380:	00000097          	auipc	ra,0x0
    80001384:	f22080e7          	jalr	-222(ra) # 800012a2 <kvmmake>
    80001388:	00008797          	auipc	a5,0x8
    8000138c:	c8a7bc23          	sd	a0,-872(a5) # 80009020 <kernel_pagetable>
}
    80001390:	60a2                	ld	ra,8(sp)
    80001392:	6402                	ld	s0,0(sp)
    80001394:	0141                	addi	sp,sp,16
    80001396:	8082                	ret

0000000080001398 <uvmunmap>:
// Remove npages of mappings starting from va. va must be
// page-aligned. The mappings must exist.
// Optionally free the physical memory.
void
uvmunmap(pagetable_t pagetable, uint64 va, uint64 npages, int do_free)
{
    80001398:	715d                	addi	sp,sp,-80
    8000139a:	e486                	sd	ra,72(sp)
    8000139c:	e0a2                	sd	s0,64(sp)
    8000139e:	fc26                	sd	s1,56(sp)
    800013a0:	f84a                	sd	s2,48(sp)
    800013a2:	f44e                	sd	s3,40(sp)
    800013a4:	f052                	sd	s4,32(sp)
    800013a6:	ec56                	sd	s5,24(sp)
    800013a8:	e85a                	sd	s6,16(sp)
    800013aa:	e45e                	sd	s7,8(sp)
    800013ac:	0880                	addi	s0,sp,80
  uint64 a;
  pte_t *pte;

  if((va % PGSIZE) != 0)
    800013ae:	03459793          	slli	a5,a1,0x34
    800013b2:	e795                	bnez	a5,800013de <uvmunmap+0x46>
    800013b4:	8a2a                	mv	s4,a0
    800013b6:	892e                	mv	s2,a1
    800013b8:	8ab6                	mv	s5,a3
    panic("uvmunmap: not aligned");

  for(a = va; a < va + npages*PGSIZE; a += PGSIZE){
    800013ba:	0632                	slli	a2,a2,0xc
    800013bc:	00b609b3          	add	s3,a2,a1
    if((pte = walk(pagetable, a, 0)) == 0)
      panic("uvmunmap: walk");
    if(PTE_FLAGS(*pte) == PTE_V) 
    800013c0:	4b05                	li	s6,1
  for(a = va; a < va + npages*PGSIZE; a += PGSIZE){
    800013c2:	6b85                	lui	s7,0x1
    800013c4:	0735e163          	bltu	a1,s3,80001426 <uvmunmap+0x8e>
      uint64 pa = PTE2PA(*pte);
      kfree((void*)pa);
    }
    *pte = 0;
  }
}
    800013c8:	60a6                	ld	ra,72(sp)
    800013ca:	6406                	ld	s0,64(sp)
    800013cc:	74e2                	ld	s1,56(sp)
    800013ce:	7942                	ld	s2,48(sp)
    800013d0:	79a2                	ld	s3,40(sp)
    800013d2:	7a02                	ld	s4,32(sp)
    800013d4:	6ae2                	ld	s5,24(sp)
    800013d6:	6b42                	ld	s6,16(sp)
    800013d8:	6ba2                	ld	s7,8(sp)
    800013da:	6161                	addi	sp,sp,80
    800013dc:	8082                	ret
    panic("uvmunmap: not aligned");
    800013de:	00007517          	auipc	a0,0x7
    800013e2:	d2250513          	addi	a0,a0,-734 # 80008100 <digits+0xc0>
    800013e6:	fffff097          	auipc	ra,0xfffff
    800013ea:	14a080e7          	jalr	330(ra) # 80000530 <panic>
      panic("uvmunmap: walk");
    800013ee:	00007517          	auipc	a0,0x7
    800013f2:	d2a50513          	addi	a0,a0,-726 # 80008118 <digits+0xd8>
    800013f6:	fffff097          	auipc	ra,0xfffff
    800013fa:	13a080e7          	jalr	314(ra) # 80000530 <panic>
      panic("uvmunmap: not a leaf"); // pte=0x87f73ff0
    800013fe:	00007517          	auipc	a0,0x7
    80001402:	d2a50513          	addi	a0,a0,-726 # 80008128 <digits+0xe8>
    80001406:	fffff097          	auipc	ra,0xfffff
    8000140a:	12a080e7          	jalr	298(ra) # 80000530 <panic>
      uint64 pa = PTE2PA(*pte);
    8000140e:	83a9                	srli	a5,a5,0xa
      kfree((void*)pa);
    80001410:	00c79513          	slli	a0,a5,0xc
    80001414:	fffff097          	auipc	ra,0xfffff
    80001418:	5d6080e7          	jalr	1494(ra) # 800009ea <kfree>
    *pte = 0;
    8000141c:	0004b023          	sd	zero,0(s1)
  for(a = va; a < va + npages*PGSIZE; a += PGSIZE){
    80001420:	995e                	add	s2,s2,s7
    80001422:	fb3973e3          	bgeu	s2,s3,800013c8 <uvmunmap+0x30>
    if((pte = walk(pagetable, a, 0)) == 0)
    80001426:	4601                	li	a2,0
    80001428:	85ca                	mv	a1,s2
    8000142a:	8552                	mv	a0,s4
    8000142c:	00000097          	auipc	ra,0x0
    80001430:	cd0080e7          	jalr	-816(ra) # 800010fc <walk>
    80001434:	84aa                	mv	s1,a0
    80001436:	dd45                	beqz	a0,800013ee <uvmunmap+0x56>
    if(PTE_FLAGS(*pte) == PTE_V) 
    80001438:	611c                	ld	a5,0(a0)
    8000143a:	3ff7f713          	andi	a4,a5,1023
    8000143e:	fd6700e3          	beq	a4,s6,800013fe <uvmunmap+0x66>
    if(do_free && (*pte & PTE_V)){
    80001442:	fc0a8de3          	beqz	s5,8000141c <uvmunmap+0x84>
    80001446:	0017f713          	andi	a4,a5,1
    8000144a:	db69                	beqz	a4,8000141c <uvmunmap+0x84>
    8000144c:	b7c9                	j	8000140e <uvmunmap+0x76>

000000008000144e <uvmcreate>:

// create an empty user page table.
// returns 0 if out of memory.
pagetable_t
uvmcreate()
{
    8000144e:	1101                	addi	sp,sp,-32
    80001450:	ec06                	sd	ra,24(sp)
    80001452:	e822                	sd	s0,16(sp)
    80001454:	e426                	sd	s1,8(sp)
    80001456:	1000                	addi	s0,sp,32
  pagetable_t pagetable;
  pagetable = (pagetable_t) kalloc();
    80001458:	fffff097          	auipc	ra,0xfffff
    8000145c:	652080e7          	jalr	1618(ra) # 80000aaa <kalloc>
    80001460:	84aa                	mv	s1,a0
  if(pagetable == 0)
    80001462:	c519                	beqz	a0,80001470 <uvmcreate+0x22>
    return 0;
  memset(pagetable, 0, PGSIZE);
    80001464:	6605                	lui	a2,0x1
    80001466:	4581                	li	a1,0
    80001468:	00000097          	auipc	ra,0x0
    8000146c:	9a8080e7          	jalr	-1624(ra) # 80000e10 <memset>
  return pagetable;
}
    80001470:	8526                	mv	a0,s1
    80001472:	60e2                	ld	ra,24(sp)
    80001474:	6442                	ld	s0,16(sp)
    80001476:	64a2                	ld	s1,8(sp)
    80001478:	6105                	addi	sp,sp,32
    8000147a:	8082                	ret

000000008000147c <uvminit>:
// Load the user initcode into address 0 of pagetable,
// for the very first process.
// sz must be less than a page.
void
uvminit(pagetable_t pagetable, uchar *src, uint sz)
{
    8000147c:	7179                	addi	sp,sp,-48
    8000147e:	f406                	sd	ra,40(sp)
    80001480:	f022                	sd	s0,32(sp)
    80001482:	ec26                	sd	s1,24(sp)
    80001484:	e84a                	sd	s2,16(sp)
    80001486:	e44e                	sd	s3,8(sp)
    80001488:	e052                	sd	s4,0(sp)
    8000148a:	1800                	addi	s0,sp,48
  char *mem;

  if(sz >= PGSIZE)
    8000148c:	6785                	lui	a5,0x1
    8000148e:	04f67863          	bgeu	a2,a5,800014de <uvminit+0x62>
    80001492:	8a2a                	mv	s4,a0
    80001494:	89ae                	mv	s3,a1
    80001496:	84b2                	mv	s1,a2
    panic("inituvm: more than a page");
  mem = kalloc();
    80001498:	fffff097          	auipc	ra,0xfffff
    8000149c:	612080e7          	jalr	1554(ra) # 80000aaa <kalloc>
    800014a0:	892a                	mv	s2,a0
  memset(mem, 0, PGSIZE);
    800014a2:	6605                	lui	a2,0x1
    800014a4:	4581                	li	a1,0
    800014a6:	00000097          	auipc	ra,0x0
    800014aa:	96a080e7          	jalr	-1686(ra) # 80000e10 <memset>
  mappages(pagetable, 0, PGSIZE, (uint64)mem, PTE_W|PTE_R|PTE_X|PTE_U);
    800014ae:	4779                	li	a4,30
    800014b0:	86ca                	mv	a3,s2
    800014b2:	6605                	lui	a2,0x1
    800014b4:	4581                	li	a1,0
    800014b6:	8552                	mv	a0,s4
    800014b8:	00000097          	auipc	ra,0x0
    800014bc:	d2c080e7          	jalr	-724(ra) # 800011e4 <mappages>
  memmove(mem, src, sz);
    800014c0:	8626                	mv	a2,s1
    800014c2:	85ce                	mv	a1,s3
    800014c4:	854a                	mv	a0,s2
    800014c6:	00000097          	auipc	ra,0x0
    800014ca:	9aa080e7          	jalr	-1622(ra) # 80000e70 <memmove>
}
    800014ce:	70a2                	ld	ra,40(sp)
    800014d0:	7402                	ld	s0,32(sp)
    800014d2:	64e2                	ld	s1,24(sp)
    800014d4:	6942                	ld	s2,16(sp)
    800014d6:	69a2                	ld	s3,8(sp)
    800014d8:	6a02                	ld	s4,0(sp)
    800014da:	6145                	addi	sp,sp,48
    800014dc:	8082                	ret
    panic("inituvm: more than a page");
    800014de:	00007517          	auipc	a0,0x7
    800014e2:	c6250513          	addi	a0,a0,-926 # 80008140 <digits+0x100>
    800014e6:	fffff097          	auipc	ra,0xfffff
    800014ea:	04a080e7          	jalr	74(ra) # 80000530 <panic>

00000000800014ee <uvmdealloc>:
// newsz.  oldsz and newsz need not be page-aligned, nor does newsz
// need to be less than oldsz.  oldsz can be larger than the actual
// process size.  Returns the new process size.
uint64
uvmdealloc(pagetable_t pagetable, uint64 oldsz, uint64 newsz)
{
    800014ee:	1101                	addi	sp,sp,-32
    800014f0:	ec06                	sd	ra,24(sp)
    800014f2:	e822                	sd	s0,16(sp)
    800014f4:	e426                	sd	s1,8(sp)
    800014f6:	1000                	addi	s0,sp,32
  if(newsz >= oldsz)
    return oldsz;
    800014f8:	84ae                	mv	s1,a1
  if(newsz >= oldsz)
    800014fa:	00b67d63          	bgeu	a2,a1,80001514 <uvmdealloc+0x26>
    800014fe:	84b2                	mv	s1,a2

  if(PGROUNDUP(newsz) < PGROUNDUP(oldsz)){
    80001500:	6785                	lui	a5,0x1
    80001502:	17fd                	addi	a5,a5,-1
    80001504:	00f60733          	add	a4,a2,a5
    80001508:	767d                	lui	a2,0xfffff
    8000150a:	8f71                	and	a4,a4,a2
    8000150c:	97ae                	add	a5,a5,a1
    8000150e:	8ff1                	and	a5,a5,a2
    80001510:	00f76863          	bltu	a4,a5,80001520 <uvmdealloc+0x32>
    int npages = (PGROUNDUP(oldsz) - PGROUNDUP(newsz)) / PGSIZE;
    uvmunmap(pagetable, PGROUNDUP(newsz), npages, 1);
  }

  return newsz;
}
    80001514:	8526                	mv	a0,s1
    80001516:	60e2                	ld	ra,24(sp)
    80001518:	6442                	ld	s0,16(sp)
    8000151a:	64a2                	ld	s1,8(sp)
    8000151c:	6105                	addi	sp,sp,32
    8000151e:	8082                	ret
    int npages = (PGROUNDUP(oldsz) - PGROUNDUP(newsz)) / PGSIZE;
    80001520:	8f99                	sub	a5,a5,a4
    80001522:	83b1                	srli	a5,a5,0xc
    uvmunmap(pagetable, PGROUNDUP(newsz), npages, 1);
    80001524:	4685                	li	a3,1
    80001526:	0007861b          	sext.w	a2,a5
    8000152a:	85ba                	mv	a1,a4
    8000152c:	00000097          	auipc	ra,0x0
    80001530:	e6c080e7          	jalr	-404(ra) # 80001398 <uvmunmap>
    80001534:	b7c5                	j	80001514 <uvmdealloc+0x26>

0000000080001536 <uvmalloc>:
  if(newsz < oldsz)
    80001536:	0ab66163          	bltu	a2,a1,800015d8 <uvmalloc+0xa2>
{
    8000153a:	7139                	addi	sp,sp,-64
    8000153c:	fc06                	sd	ra,56(sp)
    8000153e:	f822                	sd	s0,48(sp)
    80001540:	f426                	sd	s1,40(sp)
    80001542:	f04a                	sd	s2,32(sp)
    80001544:	ec4e                	sd	s3,24(sp)
    80001546:	e852                	sd	s4,16(sp)
    80001548:	e456                	sd	s5,8(sp)
    8000154a:	0080                	addi	s0,sp,64
    8000154c:	8aaa                	mv	s5,a0
    8000154e:	8a32                	mv	s4,a2
  oldsz = PGROUNDUP(oldsz);
    80001550:	6985                	lui	s3,0x1
    80001552:	19fd                	addi	s3,s3,-1
    80001554:	95ce                	add	a1,a1,s3
    80001556:	79fd                	lui	s3,0xfffff
    80001558:	0135f9b3          	and	s3,a1,s3
  for(a = oldsz; a < newsz; a += PGSIZE){
    8000155c:	08c9f063          	bgeu	s3,a2,800015dc <uvmalloc+0xa6>
    80001560:	894e                	mv	s2,s3
    mem = kalloc();
    80001562:	fffff097          	auipc	ra,0xfffff
    80001566:	548080e7          	jalr	1352(ra) # 80000aaa <kalloc>
    8000156a:	84aa                	mv	s1,a0
    if(mem == 0){
    8000156c:	c51d                	beqz	a0,8000159a <uvmalloc+0x64>
    memset(mem, 0, PGSIZE);
    8000156e:	6605                	lui	a2,0x1
    80001570:	4581                	li	a1,0
    80001572:	00000097          	auipc	ra,0x0
    80001576:	89e080e7          	jalr	-1890(ra) # 80000e10 <memset>
    if(mappages(pagetable, a, PGSIZE, (uint64)mem, PTE_W|PTE_X|PTE_R|PTE_U) != 0){
    8000157a:	4779                	li	a4,30
    8000157c:	86a6                	mv	a3,s1
    8000157e:	6605                	lui	a2,0x1
    80001580:	85ca                	mv	a1,s2
    80001582:	8556                	mv	a0,s5
    80001584:	00000097          	auipc	ra,0x0
    80001588:	c60080e7          	jalr	-928(ra) # 800011e4 <mappages>
    8000158c:	e905                	bnez	a0,800015bc <uvmalloc+0x86>
  for(a = oldsz; a < newsz; a += PGSIZE){
    8000158e:	6785                	lui	a5,0x1
    80001590:	993e                	add	s2,s2,a5
    80001592:	fd4968e3          	bltu	s2,s4,80001562 <uvmalloc+0x2c>
  return newsz;
    80001596:	8552                	mv	a0,s4
    80001598:	a809                	j	800015aa <uvmalloc+0x74>
      uvmdealloc(pagetable, a, oldsz);
    8000159a:	864e                	mv	a2,s3
    8000159c:	85ca                	mv	a1,s2
    8000159e:	8556                	mv	a0,s5
    800015a0:	00000097          	auipc	ra,0x0
    800015a4:	f4e080e7          	jalr	-178(ra) # 800014ee <uvmdealloc>
      return 0;
    800015a8:	4501                	li	a0,0
}
    800015aa:	70e2                	ld	ra,56(sp)
    800015ac:	7442                	ld	s0,48(sp)
    800015ae:	74a2                	ld	s1,40(sp)
    800015b0:	7902                	ld	s2,32(sp)
    800015b2:	69e2                	ld	s3,24(sp)
    800015b4:	6a42                	ld	s4,16(sp)
    800015b6:	6aa2                	ld	s5,8(sp)
    800015b8:	6121                	addi	sp,sp,64
    800015ba:	8082                	ret
      kfree(mem);
    800015bc:	8526                	mv	a0,s1
    800015be:	fffff097          	auipc	ra,0xfffff
    800015c2:	42c080e7          	jalr	1068(ra) # 800009ea <kfree>
      uvmdealloc(pagetable, a, oldsz);
    800015c6:	864e                	mv	a2,s3
    800015c8:	85ca                	mv	a1,s2
    800015ca:	8556                	mv	a0,s5
    800015cc:	00000097          	auipc	ra,0x0
    800015d0:	f22080e7          	jalr	-222(ra) # 800014ee <uvmdealloc>
      return 0;
    800015d4:	4501                	li	a0,0
    800015d6:	bfd1                	j	800015aa <uvmalloc+0x74>
    return oldsz;
    800015d8:	852e                	mv	a0,a1
}
    800015da:	8082                	ret
  return newsz;
    800015dc:	8532                	mv	a0,a2
    800015de:	b7f1                	j	800015aa <uvmalloc+0x74>

00000000800015e0 <freewalk>:

// Recursively free page-table pages.
// All leaf mappings must already have been removed.
void
freewalk(pagetable_t pagetable)
{
    800015e0:	7179                	addi	sp,sp,-48
    800015e2:	f406                	sd	ra,40(sp)
    800015e4:	f022                	sd	s0,32(sp)
    800015e6:	ec26                	sd	s1,24(sp)
    800015e8:	e84a                	sd	s2,16(sp)
    800015ea:	e44e                	sd	s3,8(sp)
    800015ec:	e052                	sd	s4,0(sp)
    800015ee:	1800                	addi	s0,sp,48
    800015f0:	8a2a                	mv	s4,a0
  // there are 2^9 = 512 PTEs in a page table.
  for(int i = 0; i < 512; i++){
    800015f2:	84aa                	mv	s1,a0
    800015f4:	6905                	lui	s2,0x1
    800015f6:	992a                	add	s2,s2,a0
    pte_t pte = pagetable[i];
    if((pte & PTE_V) && (pte & (PTE_R|PTE_W|PTE_X)) == 0){
    800015f8:	4985                	li	s3,1
    800015fa:	a821                	j	80001612 <freewalk+0x32>
      // this PTE points to a lower-level page table.
      uint64 child = PTE2PA(pte);
    800015fc:	8129                	srli	a0,a0,0xa
      freewalk((pagetable_t)child);
    800015fe:	0532                	slli	a0,a0,0xc
    80001600:	00000097          	auipc	ra,0x0
    80001604:	fe0080e7          	jalr	-32(ra) # 800015e0 <freewalk>
      pagetable[i] = 0;
    80001608:	0004b023          	sd	zero,0(s1)
  for(int i = 0; i < 512; i++){
    8000160c:	04a1                	addi	s1,s1,8
    8000160e:	03248163          	beq	s1,s2,80001630 <freewalk+0x50>
    pte_t pte = pagetable[i];
    80001612:	6088                	ld	a0,0(s1)
    if((pte & PTE_V) && (pte & (PTE_R|PTE_W|PTE_X)) == 0){
    80001614:	00f57793          	andi	a5,a0,15
    80001618:	ff3782e3          	beq	a5,s3,800015fc <freewalk+0x1c>
    } else if(pte & PTE_V){
    8000161c:	8905                	andi	a0,a0,1
    8000161e:	d57d                	beqz	a0,8000160c <freewalk+0x2c>
      panic("freewalk: leaf");
    80001620:	00007517          	auipc	a0,0x7
    80001624:	b4050513          	addi	a0,a0,-1216 # 80008160 <digits+0x120>
    80001628:	fffff097          	auipc	ra,0xfffff
    8000162c:	f08080e7          	jalr	-248(ra) # 80000530 <panic>
    }
  }
  kfree((void*)pagetable);
    80001630:	8552                	mv	a0,s4
    80001632:	fffff097          	auipc	ra,0xfffff
    80001636:	3b8080e7          	jalr	952(ra) # 800009ea <kfree>
}
    8000163a:	70a2                	ld	ra,40(sp)
    8000163c:	7402                	ld	s0,32(sp)
    8000163e:	64e2                	ld	s1,24(sp)
    80001640:	6942                	ld	s2,16(sp)
    80001642:	69a2                	ld	s3,8(sp)
    80001644:	6a02                	ld	s4,0(sp)
    80001646:	6145                	addi	sp,sp,48
    80001648:	8082                	ret

000000008000164a <uvmfree>:

// Free user memory pages,
// then free page-table pages.
void
uvmfree(pagetable_t pagetable, uint64 sz)
{
    8000164a:	1101                	addi	sp,sp,-32
    8000164c:	ec06                	sd	ra,24(sp)
    8000164e:	e822                	sd	s0,16(sp)
    80001650:	e426                	sd	s1,8(sp)
    80001652:	1000                	addi	s0,sp,32
    80001654:	84aa                	mv	s1,a0
  if(sz > 0)
    80001656:	e999                	bnez	a1,8000166c <uvmfree+0x22>
    uvmunmap(pagetable, 0, PGROUNDUP(sz)/PGSIZE, 1);
  freewalk(pagetable);
    80001658:	8526                	mv	a0,s1
    8000165a:	00000097          	auipc	ra,0x0
    8000165e:	f86080e7          	jalr	-122(ra) # 800015e0 <freewalk>
}
    80001662:	60e2                	ld	ra,24(sp)
    80001664:	6442                	ld	s0,16(sp)
    80001666:	64a2                	ld	s1,8(sp)
    80001668:	6105                	addi	sp,sp,32
    8000166a:	8082                	ret
    uvmunmap(pagetable, 0, PGROUNDUP(sz)/PGSIZE, 1);
    8000166c:	6605                	lui	a2,0x1
    8000166e:	167d                	addi	a2,a2,-1
    80001670:	962e                	add	a2,a2,a1
    80001672:	4685                	li	a3,1
    80001674:	8231                	srli	a2,a2,0xc
    80001676:	4581                	li	a1,0
    80001678:	00000097          	auipc	ra,0x0
    8000167c:	d20080e7          	jalr	-736(ra) # 80001398 <uvmunmap>
    80001680:	bfe1                	j	80001658 <uvmfree+0xe>

0000000080001682 <uvmcopy>:
// physical memory.
// returns 0 on success, -1 on failure.
// frees any allocated pages on failure.
int
uvmcopy(pagetable_t old, pagetable_t new, uint64 start, uint64 sz)
{
    80001682:	715d                	addi	sp,sp,-80
    80001684:	e486                	sd	ra,72(sp)
    80001686:	e0a2                	sd	s0,64(sp)
    80001688:	fc26                	sd	s1,56(sp)
    8000168a:	f84a                	sd	s2,48(sp)
    8000168c:	f44e                	sd	s3,40(sp)
    8000168e:	f052                	sd	s4,32(sp)
    80001690:	ec56                	sd	s5,24(sp)
    80001692:	e85a                	sd	s6,16(sp)
    80001694:	e45e                	sd	s7,8(sp)
    80001696:	e062                	sd	s8,0(sp)
    80001698:	0880                	addi	s0,sp,80
  pte_t *pte, *npte;
  uint64 pa, i;
  uint flags;
  char *mem;

  for(i = start; i < start + sz; i += PGSIZE){
    8000169a:	00d60a33          	add	s4,a2,a3
    8000169e:	0d467563          	bgeu	a2,s4,80001768 <uvmcopy+0xe6>
    800016a2:	8baa                	mv	s7,a0
    800016a4:	8aae                	mv	s5,a1
    800016a6:	8b32                	mv	s6,a2
    800016a8:	8932                	mv	s2,a2
    800016aa:	a889                	j	800016fc <uvmcopy+0x7a>
    if((pte = walk(old, i, 0)) == 0)
      panic("uvmcopy: pte should exist");
    800016ac:	00007517          	auipc	a0,0x7
    800016b0:	ac450513          	addi	a0,a0,-1340 # 80008170 <digits+0x130>
    800016b4:	fffff097          	auipc	ra,0xfffff
    800016b8:	e7c080e7          	jalr	-388(ra) # 80000530 <panic>
      npte = walk(new, i, 1);
      *npte = *pte;
    }
    else
    {
      pa = PTE2PA(*pte);
    800016bc:	00a75593          	srli	a1,a4,0xa
    800016c0:	00c59c13          	slli	s8,a1,0xc
      flags = PTE_FLAGS(*pte);
    800016c4:	3ff77493          	andi	s1,a4,1023
      if((mem = kalloc()) == 0)
    800016c8:	fffff097          	auipc	ra,0xfffff
    800016cc:	3e2080e7          	jalr	994(ra) # 80000aaa <kalloc>
    800016d0:	89aa                	mv	s3,a0
    800016d2:	c12d                	beqz	a0,80001734 <uvmcopy+0xb2>
        goto err;
      memmove(mem, (char*)pa, PGSIZE);
    800016d4:	6605                	lui	a2,0x1
    800016d6:	85e2                	mv	a1,s8
    800016d8:	fffff097          	auipc	ra,0xfffff
    800016dc:	798080e7          	jalr	1944(ra) # 80000e70 <memmove>
      if(mappages(new, i, PGSIZE, (uint64)mem, flags) != 0){
    800016e0:	8726                	mv	a4,s1
    800016e2:	86ce                	mv	a3,s3
    800016e4:	6605                	lui	a2,0x1
    800016e6:	85ca                	mv	a1,s2
    800016e8:	8556                	mv	a0,s5
    800016ea:	00000097          	auipc	ra,0x0
    800016ee:	afa080e7          	jalr	-1286(ra) # 800011e4 <mappages>
    800016f2:	ed05                	bnez	a0,8000172a <uvmcopy+0xa8>
  for(i = start; i < start + sz; i += PGSIZE){
    800016f4:	6785                	lui	a5,0x1
    800016f6:	993e                	add	s2,s2,a5
    800016f8:	07497663          	bgeu	s2,s4,80001764 <uvmcopy+0xe2>
    if((pte = walk(old, i, 0)) == 0)
    800016fc:	4601                	li	a2,0
    800016fe:	85ca                	mv	a1,s2
    80001700:	855e                	mv	a0,s7
    80001702:	00000097          	auipc	ra,0x0
    80001706:	9fa080e7          	jalr	-1542(ra) # 800010fc <walk>
    8000170a:	84aa                	mv	s1,a0
    8000170c:	d145                	beqz	a0,800016ac <uvmcopy+0x2a>
    if((*pte & PTE_V) == 0)
    8000170e:	6118                	ld	a4,0(a0)
    80001710:	00177793          	andi	a5,a4,1
    80001714:	f7c5                	bnez	a5,800016bc <uvmcopy+0x3a>
      npte = walk(new, i, 1);
    80001716:	4605                	li	a2,1
    80001718:	85ca                	mv	a1,s2
    8000171a:	8556                	mv	a0,s5
    8000171c:	00000097          	auipc	ra,0x0
    80001720:	9e0080e7          	jalr	-1568(ra) # 800010fc <walk>
      *npte = *pte;
    80001724:	609c                	ld	a5,0(s1)
    80001726:	e11c                	sd	a5,0(a0)
    80001728:	b7f1                	j	800016f4 <uvmcopy+0x72>
        kfree(mem);
    8000172a:	854e                	mv	a0,s3
    8000172c:	fffff097          	auipc	ra,0xfffff
    80001730:	2be080e7          	jalr	702(ra) # 800009ea <kfree>
    }
  }
  return 0;

 err:
  uvmunmap(new, start, (i - start) / PGSIZE, 1);
    80001734:	41690933          	sub	s2,s2,s6
    80001738:	4685                	li	a3,1
    8000173a:	00c95613          	srli	a2,s2,0xc
    8000173e:	85da                	mv	a1,s6
    80001740:	8556                	mv	a0,s5
    80001742:	00000097          	auipc	ra,0x0
    80001746:	c56080e7          	jalr	-938(ra) # 80001398 <uvmunmap>
  return -1;
    8000174a:	557d                	li	a0,-1
}
    8000174c:	60a6                	ld	ra,72(sp)
    8000174e:	6406                	ld	s0,64(sp)
    80001750:	74e2                	ld	s1,56(sp)
    80001752:	7942                	ld	s2,48(sp)
    80001754:	79a2                	ld	s3,40(sp)
    80001756:	7a02                	ld	s4,32(sp)
    80001758:	6ae2                	ld	s5,24(sp)
    8000175a:	6b42                	ld	s6,16(sp)
    8000175c:	6ba2                	ld	s7,8(sp)
    8000175e:	6c02                	ld	s8,0(sp)
    80001760:	6161                	addi	sp,sp,80
    80001762:	8082                	ret
  return 0;
    80001764:	4501                	li	a0,0
    80001766:	b7dd                	j	8000174c <uvmcopy+0xca>
    80001768:	4501                	li	a0,0
    8000176a:	b7cd                	j	8000174c <uvmcopy+0xca>

000000008000176c <uvmclear>:

// mark a PTE invalid for user access.
// used by exec for the user stack guard page.
void
uvmclear(pagetable_t pagetable, uint64 va)
{
    8000176c:	1141                	addi	sp,sp,-16
    8000176e:	e406                	sd	ra,8(sp)
    80001770:	e022                	sd	s0,0(sp)
    80001772:	0800                	addi	s0,sp,16
  pte_t *pte;
  
  pte = walk(pagetable, va, 0);
    80001774:	4601                	li	a2,0
    80001776:	00000097          	auipc	ra,0x0
    8000177a:	986080e7          	jalr	-1658(ra) # 800010fc <walk>
  if(pte == 0)
    8000177e:	c901                	beqz	a0,8000178e <uvmclear+0x22>
    panic("uvmclear");
  *pte &= ~PTE_U;
    80001780:	611c                	ld	a5,0(a0)
    80001782:	9bbd                	andi	a5,a5,-17
    80001784:	e11c                	sd	a5,0(a0)
}
    80001786:	60a2                	ld	ra,8(sp)
    80001788:	6402                	ld	s0,0(sp)
    8000178a:	0141                	addi	sp,sp,16
    8000178c:	8082                	ret
    panic("uvmclear");
    8000178e:	00007517          	auipc	a0,0x7
    80001792:	a0250513          	addi	a0,a0,-1534 # 80008190 <digits+0x150>
    80001796:	fffff097          	auipc	ra,0xfffff
    8000179a:	d9a080e7          	jalr	-614(ra) # 80000530 <panic>

000000008000179e <sys_mmap>:
  }
}

uint64
sys_mmap()
{
    8000179e:	7119                	addi	sp,sp,-128
    800017a0:	fc86                	sd	ra,120(sp)
    800017a2:	f8a2                	sd	s0,112(sp)
    800017a4:	f4a6                	sd	s1,104(sp)
    800017a6:	f0ca                	sd	s2,96(sp)
    800017a8:	ecce                	sd	s3,88(sp)
    800017aa:	e8d2                	sd	s4,80(sp)
    800017ac:	e4d6                	sd	s5,72(sp)
    800017ae:	e0da                	sd	s6,64(sp)
    800017b0:	fc5e                	sd	s7,56(sp)
    800017b2:	f862                	sd	s8,48(sp)
    800017b4:	f466                	sd	s9,40(sp)
    800017b6:	f06a                	sd	s10,32(sp)
    800017b8:	0100                	addi	s0,sp,128
  uint64 addr;
  int length, prot, flags, fd, offset;
  if (argaddr(0, &addr) < 0 || argint(1, &length) < 0 || argint(2, &prot) < 0 || argint(3, &flags) < 0 || argint(4, &fd) < 0 || argint(5, &offset) < 0)
    800017ba:	f9840593          	addi	a1,s0,-104
    800017be:	4501                	li	a0,0
    800017c0:	00002097          	auipc	ra,0x2
    800017c4:	cae080e7          	jalr	-850(ra) # 8000346e <argaddr>
    return -1;
    800017c8:	57fd                	li	a5,-1
  if (argaddr(0, &addr) < 0 || argint(1, &length) < 0 || argint(2, &prot) < 0 || argint(3, &flags) < 0 || argint(4, &fd) < 0 || argint(5, &offset) < 0)
    800017ca:	08054463          	bltz	a0,80001852 <sys_mmap+0xb4>
    800017ce:	f9440593          	addi	a1,s0,-108
    800017d2:	4505                	li	a0,1
    800017d4:	00002097          	auipc	ra,0x2
    800017d8:	c78080e7          	jalr	-904(ra) # 8000344c <argint>
    return -1;
    800017dc:	57fd                	li	a5,-1
  if (argaddr(0, &addr) < 0 || argint(1, &length) < 0 || argint(2, &prot) < 0 || argint(3, &flags) < 0 || argint(4, &fd) < 0 || argint(5, &offset) < 0)
    800017de:	06054a63          	bltz	a0,80001852 <sys_mmap+0xb4>
    800017e2:	f9040593          	addi	a1,s0,-112
    800017e6:	4509                	li	a0,2
    800017e8:	00002097          	auipc	ra,0x2
    800017ec:	c64080e7          	jalr	-924(ra) # 8000344c <argint>
    return -1;
    800017f0:	57fd                	li	a5,-1
  if (argaddr(0, &addr) < 0 || argint(1, &length) < 0 || argint(2, &prot) < 0 || argint(3, &flags) < 0 || argint(4, &fd) < 0 || argint(5, &offset) < 0)
    800017f2:	06054063          	bltz	a0,80001852 <sys_mmap+0xb4>
    800017f6:	f8c40593          	addi	a1,s0,-116
    800017fa:	450d                	li	a0,3
    800017fc:	00002097          	auipc	ra,0x2
    80001800:	c50080e7          	jalr	-944(ra) # 8000344c <argint>
    return -1;
    80001804:	57fd                	li	a5,-1
  if (argaddr(0, &addr) < 0 || argint(1, &length) < 0 || argint(2, &prot) < 0 || argint(3, &flags) < 0 || argint(4, &fd) < 0 || argint(5, &offset) < 0)
    80001806:	04054663          	bltz	a0,80001852 <sys_mmap+0xb4>
    8000180a:	f8840593          	addi	a1,s0,-120
    8000180e:	4511                	li	a0,4
    80001810:	00002097          	auipc	ra,0x2
    80001814:	c3c080e7          	jalr	-964(ra) # 8000344c <argint>
    return -1;
    80001818:	57fd                	li	a5,-1
  if (argaddr(0, &addr) < 0 || argint(1, &length) < 0 || argint(2, &prot) < 0 || argint(3, &flags) < 0 || argint(4, &fd) < 0 || argint(5, &offset) < 0)
    8000181a:	02054c63          	bltz	a0,80001852 <sys_mmap+0xb4>
    8000181e:	f8440593          	addi	a1,s0,-124
    80001822:	4515                	li	a0,5
    80001824:	00002097          	auipc	ra,0x2
    80001828:	c28080e7          	jalr	-984(ra) # 8000344c <argint>
    8000182c:	26054363          	bltz	a0,80001a92 <sys_mmap+0x2f4>
  if (addr != 0 || offset != 0 || (prot & PTE_X))
    80001830:	f9843703          	ld	a4,-104(s0)
    return -1;
    80001834:	57fd                	li	a5,-1
  if (addr != 0 || offset != 0 || (prot & PTE_X))
    80001836:	ef11                	bnez	a4,80001852 <sys_mmap+0xb4>
    80001838:	f9042703          	lw	a4,-112(s0)
    8000183c:	8b21                	andi	a4,a4,8
    8000183e:	f8442783          	lw	a5,-124(s0)
    80001842:	8f5d                	or	a4,a4,a5
    return -1;
    80001844:	57fd                	li	a5,-1
  if (addr != 0 || offset != 0 || (prot & PTE_X))
    80001846:	e711                	bnez	a4,80001852 <sys_mmap+0xb4>
  // length should be page aligned
  if (PGROUNDDOWN(length) != length)
    80001848:	f9442703          	lw	a4,-108(s0)
    8000184c:	03471693          	slli	a3,a4,0x34
    80001850:	c285                	beqz	a3,80001870 <sys_mmap+0xd2>
    prev->next = new_vma;

  filedup(fp);

  return new_vma->start;
}
    80001852:	853e                	mv	a0,a5
    80001854:	70e6                	ld	ra,120(sp)
    80001856:	7446                	ld	s0,112(sp)
    80001858:	74a6                	ld	s1,104(sp)
    8000185a:	7906                	ld	s2,96(sp)
    8000185c:	69e6                	ld	s3,88(sp)
    8000185e:	6a46                	ld	s4,80(sp)
    80001860:	6aa6                	ld	s5,72(sp)
    80001862:	6b06                	ld	s6,64(sp)
    80001864:	7be2                	ld	s7,56(sp)
    80001866:	7c42                	ld	s8,48(sp)
    80001868:	7ca2                	ld	s9,40(sp)
    8000186a:	7d02                	ld	s10,32(sp)
    8000186c:	6109                	addi	sp,sp,128
    8000186e:	8082                	ret
  struct file *fp = myproc()->ofile[fd];
    80001870:	00001097          	auipc	ra,0x1
    80001874:	966080e7          	jalr	-1690(ra) # 800021d6 <myproc>
    80001878:	f8842783          	lw	a5,-120(s0)
    8000187c:	07e9                	addi	a5,a5,26
    8000187e:	078e                	slli	a5,a5,0x3
    80001880:	97aa                	add	a5,a5,a0
    80001882:	0007bc03          	ld	s8,0(a5) # 1000 <_entry-0x7ffff000>
  if (!fp->readable && (prot & PROT_READ))
    80001886:	008c4783          	lbu	a5,8(s8)
    8000188a:	ef81                	bnez	a5,800018a2 <sys_mmap+0x104>
    8000188c:	f9042703          	lw	a4,-112(s0)
    80001890:	00177693          	andi	a3,a4,1
    return -1;
    80001894:	57fd                	li	a5,-1
  if (!fp->readable && (prot & PROT_READ))
    80001896:	fed5                	bnez	a3,80001852 <sys_mmap+0xb4>
  if (!fp->writable && (prot & PROT_WRITE) && flags == MAP_SHARED)
    80001898:	009c4783          	lbu	a5,9(s8)
  int pte_flags = PTE_U;
    8000189c:	4a41                	li	s4,16
  if (!fp->writable && (prot & PROT_WRITE) && flags == MAP_SHARED)
    8000189e:	eb9d                	bnez	a5,800018d4 <sys_mmap+0x136>
    800018a0:	a021                	j	800018a8 <sys_mmap+0x10a>
    800018a2:	009c4783          	lbu	a5,9(s8)
    800018a6:	e38d                	bnez	a5,800018c8 <sys_mmap+0x12a>
    800018a8:	f9042783          	lw	a5,-112(s0)
    800018ac:	0027f713          	andi	a4,a5,2
    800018b0:	1e070563          	beqz	a4,80001a9a <sys_mmap+0x2fc>
    800018b4:	f8c42683          	lw	a3,-116(s0)
    800018b8:	4705                	li	a4,1
    800018ba:	1ce68e63          	beq	a3,a4,80001a96 <sys_mmap+0x2f8>
  if (prot & PROT_READ)
    800018be:	8b85                	andi	a5,a5,1
  int pte_flags = PTE_U;
    800018c0:	4a41                	li	s4,16
  if (prot & PROT_READ)
    800018c2:	cb99                	beqz	a5,800018d8 <sys_mmap+0x13a>
    pte_flags |= PTE_R;
    800018c4:	4a49                	li	s4,18
    800018c6:	a809                	j	800018d8 <sys_mmap+0x13a>
  if (prot & PROT_READ)
    800018c8:	f9042703          	lw	a4,-112(s0)
    800018cc:	00177793          	andi	a5,a4,1
    800018d0:	cfbd                	beqz	a5,8000194e <sys_mmap+0x1b0>
    pte_flags |= PTE_R;
    800018d2:	4a49                	li	s4,18
  if (prot & PROT_WRITE)
    800018d4:	8b09                	andi	a4,a4,2
    800018d6:	c319                	beqz	a4,800018dc <sys_mmap+0x13e>
    pte_flags |= PTE_W;
    800018d8:	004a6a13          	ori	s4,s4,4
  struct vma *p = myproc()->vma, *new_vma = kvma_alloc(), *prev = 0;
    800018dc:	00001097          	auipc	ra,0x1
    800018e0:	8fa080e7          	jalr	-1798(ra) # 800021d6 <myproc>
    800018e4:	16853903          	ld	s2,360(a0)
    800018e8:	fffff097          	auipc	ra,0xfffff
    800018ec:	352080e7          	jalr	850(ra) # 80000c3a <kvma_alloc>
    800018f0:	8aaa                	mv	s5,a0
  new_vma->length = length;  
    800018f2:	f9442783          	lw	a5,-108(s0)
    800018f6:	f11c                	sd	a5,32(a0)
  new_vma->offset = offset;
    800018f8:	f8442783          	lw	a5,-124(s0)
    800018fc:	f51c                	sd	a5,40(a0)
  new_vma->prot = prot;
    800018fe:	f9042783          	lw	a5,-112(s0)
    80001902:	c91c                	sw	a5,16(a0)
  new_vma->flags = flags;
    80001904:	f8c42783          	lw	a5,-116(s0)
    80001908:	d91c                	sw	a5,48(a0)
  new_vma->file = fp;
    8000190a:	01853c23          	sd	s8,24(a0)
  new_vma->next = 0;
    8000190e:	02053c23          	sd	zero,56(a0)
  pagetable_t pagetable = myproc()->pagetable;
    80001912:	00001097          	auipc	ra,0x1
    80001916:	8c4080e7          	jalr	-1852(ra) # 800021d6 <myproc>
    8000191a:	05053b03          	ld	s6,80(a0)
  if (p == 0)
    8000191e:	02090a63          	beqz	s2,80001952 <sys_mmap+0x1b4>
    lower = p->end;
    80001922:	00893783          	ld	a5,8(s2) # 1008 <_entry-0x7fffeff8>
    if (upper - lower >= length)
    80001926:	f9442583          	lw	a1,-108(s0)
    8000192a:	020004b7          	lui	s1,0x2000
    8000192e:	14fd                	addi	s1,s1,-1
    80001930:	04b6                	slli	s1,s1,0xd
    80001932:	4b81                	li	s7,0
    80001934:	40f487b3          	sub	a5,s1,a5
    80001938:	02b7f663          	bgeu	a5,a1,80001964 <sys_mmap+0x1c6>
    upper = p->start;
    8000193c:	00093483          	ld	s1,0(s2)
    if (p->next == 0)
    80001940:	03893703          	ld	a4,56(s2)
    80001944:	cf59                	beqz	a4,800019e2 <sys_mmap+0x244>
      lower = p->next->end;
    80001946:	671c                	ld	a5,8(a4)
    80001948:	8bca                	mv	s7,s2
    8000194a:	893a                	mv	s2,a4
    8000194c:	b7e5                	j	80001934 <sys_mmap+0x196>
  int pte_flags = PTE_U;
    8000194e:	4a41                	li	s4,16
    80001950:	b751                	j	800018d4 <sys_mmap+0x136>
    lower = upper - length;
    80001952:	f9442583          	lw	a1,-108(s0)
    80001956:	020004b7          	lui	s1,0x2000
    8000195a:	14fd                	addi	s1,s1,-1
    8000195c:	04b6                	slli	s1,s1,0xd
    8000195e:	40b485b3          	sub	a1,s1,a1
  for (; p != 0; p = p->next)
    80001962:	a051                	j	800019e6 <sys_mmap+0x248>
      for (uint64 va = upper - PGSIZE; va >= upper - length; va -= PGSIZE)
    80001964:	7cfd                	lui	s9,0xfffff
    80001966:	9ca6                	add	s9,s9,s1
    80001968:	40b485b3          	sub	a1,s1,a1
    8000196c:	02bce563          	bltu	s9,a1,80001996 <sys_mmap+0x1f8>
    80001970:	89e6                	mv	s3,s9
    80001972:	7d7d                	lui	s10,0xfffff
        pte_t *pte = walk(pagetable, va, 1);
    80001974:	4605                	li	a2,1
    80001976:	85ce                	mv	a1,s3
    80001978:	855a                	mv	a0,s6
    8000197a:	fffff097          	auipc	ra,0xfffff
    8000197e:	782080e7          	jalr	1922(ra) # 800010fc <walk>
        if (pte)
    80001982:	cd05                	beqz	a0,800019ba <sys_mmap+0x21c>
          *pte = PA2PTE(0) | pte_flags;  // allocate a fake 0 address
    80001984:	01453023          	sd	s4,0(a0)
      for (uint64 va = upper - PGSIZE; va >= upper - length; va -= PGSIZE)
    80001988:	99ea                	add	s3,s3,s10
    8000198a:	f9442583          	lw	a1,-108(s0)
    8000198e:	40b485b3          	sub	a1,s1,a1
    80001992:	feb9f1e3          	bgeu	s3,a1,80001974 <sys_mmap+0x1d6>
      new_vma->start = upper - length;
    80001996:	00bab023          	sd	a1,0(s5)
      new_vma->end = upper;
    8000199a:	009ab423          	sd	s1,8(s5)
      new_vma->next = p;
    8000199e:	032abc23          	sd	s2,56(s5)
      if (prev == 0)
    800019a2:	020b8963          	beqz	s7,800019d4 <sys_mmap+0x236>
        prev->next = new_vma;
    800019a6:	035bbc23          	sd	s5,56(s7) # 1038 <_entry-0x7fffefc8>
      filedup(fp);
    800019aa:	8562                	mv	a0,s8
    800019ac:	00003097          	auipc	ra,0x3
    800019b0:	466080e7          	jalr	1126(ra) # 80004e12 <filedup>
      return new_vma->start;
    800019b4:	000ab783          	ld	a5,0(s5)
    800019b8:	bd69                	j	80001852 <sys_mmap+0xb4>
          uvmunmap(pagetable, va + PGSIZE, (upper - PGSIZE - va) / PGSIZE, 0);
    800019ba:	413c8633          	sub	a2,s9,s3
    800019be:	4681                	li	a3,0
    800019c0:	8231                	srli	a2,a2,0xc
    800019c2:	6585                	lui	a1,0x1
    800019c4:	95ce                	add	a1,a1,s3
    800019c6:	855a                	mv	a0,s6
    800019c8:	00000097          	auipc	ra,0x0
    800019cc:	9d0080e7          	jalr	-1584(ra) # 80001398 <uvmunmap>
          return -1;
    800019d0:	57fd                	li	a5,-1
    800019d2:	b541                	j	80001852 <sys_mmap+0xb4>
        myproc()->vma = new_vma;
    800019d4:	00001097          	auipc	ra,0x1
    800019d8:	802080e7          	jalr	-2046(ra) # 800021d6 <myproc>
    800019dc:	17553423          	sd	s5,360(a0)
    800019e0:	b7e9                	j	800019aa <sys_mmap+0x20c>
      lower = upper - length;
    800019e2:	40b485b3          	sub	a1,s1,a1
  pte_t *pte = walk(pagetable, lower, 0);
    800019e6:	4601                	li	a2,0
    800019e8:	855a                	mv	a0,s6
    800019ea:	fffff097          	auipc	ra,0xfffff
    800019ee:	712080e7          	jalr	1810(ra) # 800010fc <walk>
  if (*pte != 0)
    800019f2:	6118                	ld	a4,0(a0)
    return -1;
    800019f4:	57fd                	li	a5,-1
  if (*pte != 0)
    800019f6:	e4071ee3          	bnez	a4,80001852 <sys_mmap+0xb4>
  for (uint64 va = upper - PGSIZE; va >= upper - length; va -= PGSIZE)
    800019fa:	7d7d                	lui	s10,0xfffff
    800019fc:	9d26                	add	s10,s10,s1
    800019fe:	f9442783          	lw	a5,-108(s0)
    80001a02:	40f487b3          	sub	a5,s1,a5
    80001a06:	04fd6063          	bltu	s10,a5,80001a46 <sys_mmap+0x2a8>
    80001a0a:	89ea                	mv	s3,s10
      printf("va=%p, pte=%p\n", va, *pte);
    80001a0c:	00006c97          	auipc	s9,0x6
    80001a10:	794c8c93          	addi	s9,s9,1940 # 800081a0 <digits+0x160>
  for (uint64 va = upper - PGSIZE; va >= upper - length; va -= PGSIZE)
    80001a14:	7bfd                	lui	s7,0xfffff
    pte_t *pte = walk(pagetable, va, 1);
    80001a16:	4605                	li	a2,1
    80001a18:	85ce                	mv	a1,s3
    80001a1a:	855a                	mv	a0,s6
    80001a1c:	fffff097          	auipc	ra,0xfffff
    80001a20:	6e0080e7          	jalr	1760(ra) # 800010fc <walk>
    if (pte)
    80001a24:	c139                	beqz	a0,80001a6a <sys_mmap+0x2cc>
      *pte = PA2PTE(0) | pte_flags;  // allocate a fake 0 address
    80001a26:	01453023          	sd	s4,0(a0)
      printf("va=%p, pte=%p\n", va, *pte);
    80001a2a:	8652                	mv	a2,s4
    80001a2c:	85ce                	mv	a1,s3
    80001a2e:	8566                	mv	a0,s9
    80001a30:	fffff097          	auipc	ra,0xfffff
    80001a34:	b4a080e7          	jalr	-1206(ra) # 8000057a <printf>
  for (uint64 va = upper - PGSIZE; va >= upper - length; va -= PGSIZE)
    80001a38:	99de                	add	s3,s3,s7
    80001a3a:	f9442783          	lw	a5,-108(s0)
    80001a3e:	40f487b3          	sub	a5,s1,a5
    80001a42:	fcf9fae3          	bgeu	s3,a5,80001a16 <sys_mmap+0x278>
  new_vma->start = upper - length;
    80001a46:	00fab023          	sd	a5,0(s5)
  new_vma->end = upper;
    80001a4a:	009ab423          	sd	s1,8(s5)
  new_vma->next = 0;
    80001a4e:	020abc23          	sd	zero,56(s5)
  if (prev == 0)
    80001a52:	02090963          	beqz	s2,80001a84 <sys_mmap+0x2e6>
    prev->next = new_vma;
    80001a56:	03593c23          	sd	s5,56(s2)
  filedup(fp);
    80001a5a:	8562                	mv	a0,s8
    80001a5c:	00003097          	auipc	ra,0x3
    80001a60:	3b6080e7          	jalr	950(ra) # 80004e12 <filedup>
  return new_vma->start;
    80001a64:	000ab783          	ld	a5,0(s5)
    80001a68:	b3ed                	j	80001852 <sys_mmap+0xb4>
      uvmunmap(pagetable, va + PGSIZE, (upper - PGSIZE - va) / PGSIZE, 0);
    80001a6a:	413d0633          	sub	a2,s10,s3
    80001a6e:	4681                	li	a3,0
    80001a70:	8231                	srli	a2,a2,0xc
    80001a72:	6585                	lui	a1,0x1
    80001a74:	95ce                	add	a1,a1,s3
    80001a76:	855a                	mv	a0,s6
    80001a78:	00000097          	auipc	ra,0x0
    80001a7c:	920080e7          	jalr	-1760(ra) # 80001398 <uvmunmap>
      return -1;
    80001a80:	57fd                	li	a5,-1
    80001a82:	bbc1                	j	80001852 <sys_mmap+0xb4>
    myproc()->vma = new_vma;
    80001a84:	00000097          	auipc	ra,0x0
    80001a88:	752080e7          	jalr	1874(ra) # 800021d6 <myproc>
    80001a8c:	17553423          	sd	s5,360(a0)
    80001a90:	b7e9                	j	80001a5a <sys_mmap+0x2bc>
    return -1;
    80001a92:	57fd                	li	a5,-1
    80001a94:	bb7d                	j	80001852 <sys_mmap+0xb4>
    return -1;
    80001a96:	57fd                	li	a5,-1
    80001a98:	bb6d                	j	80001852 <sys_mmap+0xb4>
  if (prot & PROT_READ)
    80001a9a:	8b85                	andi	a5,a5,1
  int pte_flags = PTE_U;
    80001a9c:	4a41                	li	s4,16
  if (prot & PROT_READ)
    80001a9e:	e2078fe3          	beqz	a5,800018dc <sys_mmap+0x13e>
    pte_flags |= PTE_R;
    80001aa2:	4a49                	li	s4,18
    80001aa4:	bd25                	j	800018dc <sys_mmap+0x13e>

0000000080001aa6 <pagefault_handler>:
pagefault_handler(pagetable_t pagetable, uint64 va)
{
  pte_t *pte;
  char *pa;

  if(va >= MAXVA)
    80001aa6:	57fd                	li	a5,-1
    80001aa8:	83e9                	srli	a5,a5,0x1a
    80001aaa:	0cb7ee63          	bltu	a5,a1,80001b86 <pagefault_handler+0xe0>
{
    80001aae:	7179                	addi	sp,sp,-48
    80001ab0:	f406                	sd	ra,40(sp)
    80001ab2:	f022                	sd	s0,32(sp)
    80001ab4:	ec26                	sd	s1,24(sp)
    80001ab6:	e84a                	sd	s2,16(sp)
    80001ab8:	e44e                	sd	s3,8(sp)
    80001aba:	e052                	sd	s4,0(sp)
    80001abc:	1800                	addi	s0,sp,48
    80001abe:	892e                	mv	s2,a1
    return -1;
  if ((pte = walk(pagetable, va, 0)) == 0)
    80001ac0:	4601                	li	a2,0
    80001ac2:	fffff097          	auipc	ra,0xfffff
    80001ac6:	63a080e7          	jalr	1594(ra) # 800010fc <walk>
    80001aca:	89aa                	mv	s3,a0
    80001acc:	cd5d                	beqz	a0,80001b8a <pagefault_handler+0xe4>
    // invalid address
    return -1;
  if ((*pte & PTE_U) == 0)
    80001ace:	611c                	ld	a5,0(a0)
    80001ad0:	8bc1                	andi	a5,a5,16
    80001ad2:	cfd5                	beqz	a5,80001b8e <pagefault_handler+0xe8>
    return -1;
  
  // find vma
  struct vma *p;
  for (p = myproc()->vma; p != 0; p = p->next)
    80001ad4:	00000097          	auipc	ra,0x0
    80001ad8:	702080e7          	jalr	1794(ra) # 800021d6 <myproc>
    80001adc:	16853483          	ld	s1,360(a0)
    80001ae0:	e899                	bnez	s1,80001af6 <pagefault_handler+0x50>
    if (va >= p->start && va < p->end)
      break;
  if (p == 0)
    panic("cannot find vma");
    80001ae2:	00006517          	auipc	a0,0x6
    80001ae6:	6ce50513          	addi	a0,a0,1742 # 800081b0 <digits+0x170>
    80001aea:	fffff097          	auipc	ra,0xfffff
    80001aee:	a46080e7          	jalr	-1466(ra) # 80000530 <panic>
  for (p = myproc()->vma; p != 0; p = p->next)
    80001af2:	7c84                	ld	s1,56(s1)
    80001af4:	d4fd                	beqz	s1,80001ae2 <pagefault_handler+0x3c>
    if (va >= p->start && va < p->end)
    80001af6:	609c                	ld	a5,0(s1)
    80001af8:	fef96de3          	bltu	s2,a5,80001af2 <pagefault_handler+0x4c>
    80001afc:	649c                	ld	a5,8(s1)
    80001afe:	fef97ae3          	bgeu	s2,a5,80001af2 <pagefault_handler+0x4c>
  
  // alloc a page
  pa = kalloc();
    80001b02:	fffff097          	auipc	ra,0xfffff
    80001b06:	fa8080e7          	jalr	-88(ra) # 80000aaa <kalloc>
    80001b0a:	8a2a                	mv	s4,a0
  if (pa == 0)
    80001b0c:	c159                	beqz	a0,80001b92 <pagefault_handler+0xec>
    return -1;
  memset(pa, 0, PGSIZE);
    80001b0e:	6605                	lui	a2,0x1
    80001b10:	4581                	li	a1,0
    80001b12:	8552                	mv	a0,s4
    80001b14:	fffff097          	auipc	ra,0xfffff
    80001b18:	2fc080e7          	jalr	764(ra) # 80000e10 <memset>
  *pte = PA2PTE(pa) | PTE_FLAGS(*pte) | PTE_V;
    80001b1c:	00ca5793          	srli	a5,s4,0xc
    80001b20:	07aa                	slli	a5,a5,0xa
    80001b22:	0009b703          	ld	a4,0(s3) # fffffffffffff000 <end+0xffffffff7ffd9000>
    80001b26:	3ff77713          	andi	a4,a4,1023
    80001b2a:	8fd9                	or	a5,a5,a4
    80001b2c:	0017e793          	ori	a5,a5,1
    80001b30:	00f9b023          	sd	a5,0(s3)

  // write to the page
  va = PGROUNDDOWN(va);
  struct file *fp = p->file;
    80001b34:	0184b983          	ld	s3,24(s1) # 2000018 <_entry-0x7dffffe8>
  ilock(fp->ip);
    80001b38:	0189b503          	ld	a0,24(s3)
    80001b3c:	00002097          	auipc	ra,0x2
    80001b40:	482080e7          	jalr	1154(ra) # 80003fbe <ilock>
  va = PGROUNDDOWN(va);
    80001b44:	76fd                	lui	a3,0xfffff
    80001b46:	00d97933          	and	s2,s2,a3
  readi(fp->ip, 0, (uint64)pa, va - p->start + p->offset, PGSIZE);
    80001b4a:	7494                	ld	a3,40(s1)
    80001b4c:	00d9093b          	addw	s2,s2,a3
    80001b50:	6094                	ld	a3,0(s1)
    80001b52:	6705                	lui	a4,0x1
    80001b54:	40d906bb          	subw	a3,s2,a3
    80001b58:	8652                	mv	a2,s4
    80001b5a:	4581                	li	a1,0
    80001b5c:	0189b503          	ld	a0,24(s3)
    80001b60:	00002097          	auipc	ra,0x2
    80001b64:	712080e7          	jalr	1810(ra) # 80004272 <readi>
  iunlock(fp->ip);
    80001b68:	0189b503          	ld	a0,24(s3)
    80001b6c:	00002097          	auipc	ra,0x2
    80001b70:	514080e7          	jalr	1300(ra) # 80004080 <iunlock>

  return 0;
    80001b74:	4501                	li	a0,0
}
    80001b76:	70a2                	ld	ra,40(sp)
    80001b78:	7402                	ld	s0,32(sp)
    80001b7a:	64e2                	ld	s1,24(sp)
    80001b7c:	6942                	ld	s2,16(sp)
    80001b7e:	69a2                	ld	s3,8(sp)
    80001b80:	6a02                	ld	s4,0(sp)
    80001b82:	6145                	addi	sp,sp,48
    80001b84:	8082                	ret
    return -1;
    80001b86:	557d                	li	a0,-1
}
    80001b88:	8082                	ret
    return -1;
    80001b8a:	557d                	li	a0,-1
    80001b8c:	b7ed                	j	80001b76 <pagefault_handler+0xd0>
    return -1;
    80001b8e:	557d                	li	a0,-1
    80001b90:	b7dd                	j	80001b76 <pagefault_handler+0xd0>
    return -1;
    80001b92:	557d                	li	a0,-1
    80001b94:	b7cd                	j	80001b76 <pagefault_handler+0xd0>

0000000080001b96 <copyout>:
  while(len > 0){
    80001b96:	ced9                	beqz	a3,80001c34 <copyout+0x9e>
{
    80001b98:	715d                	addi	sp,sp,-80
    80001b9a:	e486                	sd	ra,72(sp)
    80001b9c:	e0a2                	sd	s0,64(sp)
    80001b9e:	fc26                	sd	s1,56(sp)
    80001ba0:	f84a                	sd	s2,48(sp)
    80001ba2:	f44e                	sd	s3,40(sp)
    80001ba4:	f052                	sd	s4,32(sp)
    80001ba6:	ec56                	sd	s5,24(sp)
    80001ba8:	e85a                	sd	s6,16(sp)
    80001baa:	e45e                	sd	s7,8(sp)
    80001bac:	e062                	sd	s8,0(sp)
    80001bae:	0880                	addi	s0,sp,80
    80001bb0:	8b2a                	mv	s6,a0
    80001bb2:	892e                	mv	s2,a1
    80001bb4:	8ab2                	mv	s5,a2
    80001bb6:	8a36                	mv	s4,a3
    va0 = PGROUNDDOWN(dstva);
    80001bb8:	7c7d                	lui	s8,0xfffff
    n = PGSIZE - (dstva - va0);
    80001bba:	6b85                	lui	s7,0x1
    80001bbc:	a805                	j	80001bec <copyout+0x56>
    80001bbe:	412984b3          	sub	s1,s3,s2
    80001bc2:	94de                	add	s1,s1,s7
    if(n > len)
    80001bc4:	009a7363          	bgeu	s4,s1,80001bca <copyout+0x34>
    80001bc8:	84d2                	mv	s1,s4
    memmove((void *)(pa0 + (dstva - va0)), src, n);
    80001bca:	41390933          	sub	s2,s2,s3
    80001bce:	0004861b          	sext.w	a2,s1
    80001bd2:	85d6                	mv	a1,s5
    80001bd4:	954a                	add	a0,a0,s2
    80001bd6:	fffff097          	auipc	ra,0xfffff
    80001bda:	29a080e7          	jalr	666(ra) # 80000e70 <memmove>
    len -= n;
    80001bde:	409a0a33          	sub	s4,s4,s1
    src += n;
    80001be2:	9aa6                	add	s5,s5,s1
    dstva = va0 + PGSIZE;
    80001be4:	01798933          	add	s2,s3,s7
  while(len > 0){
    80001be8:	020a0963          	beqz	s4,80001c1a <copyout+0x84>
    va0 = PGROUNDDOWN(dstva);
    80001bec:	018979b3          	and	s3,s2,s8
    pa0 = walkaddr(pagetable, va0);
    80001bf0:	85ce                	mv	a1,s3
    80001bf2:	855a                	mv	a0,s6
    80001bf4:	fffff097          	auipc	ra,0xfffff
    80001bf8:	5ae080e7          	jalr	1454(ra) # 800011a2 <walkaddr>
    if(pa0 == 0)
    80001bfc:	f169                	bnez	a0,80001bbe <copyout+0x28>
      if (pagefault_handler(pagetable, va0) != 0)
    80001bfe:	85ce                	mv	a1,s3
    80001c00:	855a                	mv	a0,s6
    80001c02:	00000097          	auipc	ra,0x0
    80001c06:	ea4080e7          	jalr	-348(ra) # 80001aa6 <pagefault_handler>
    80001c0a:	e51d                	bnez	a0,80001c38 <copyout+0xa2>
      pa0 = walkaddr(pagetable, va0);
    80001c0c:	85ce                	mv	a1,s3
    80001c0e:	855a                	mv	a0,s6
    80001c10:	fffff097          	auipc	ra,0xfffff
    80001c14:	592080e7          	jalr	1426(ra) # 800011a2 <walkaddr>
    80001c18:	b75d                	j	80001bbe <copyout+0x28>
  return 0;
    80001c1a:	4501                	li	a0,0
}
    80001c1c:	60a6                	ld	ra,72(sp)
    80001c1e:	6406                	ld	s0,64(sp)
    80001c20:	74e2                	ld	s1,56(sp)
    80001c22:	7942                	ld	s2,48(sp)
    80001c24:	79a2                	ld	s3,40(sp)
    80001c26:	7a02                	ld	s4,32(sp)
    80001c28:	6ae2                	ld	s5,24(sp)
    80001c2a:	6b42                	ld	s6,16(sp)
    80001c2c:	6ba2                	ld	s7,8(sp)
    80001c2e:	6c02                	ld	s8,0(sp)
    80001c30:	6161                	addi	sp,sp,80
    80001c32:	8082                	ret
  return 0;
    80001c34:	4501                	li	a0,0
}
    80001c36:	8082                	ret
        return -1;
    80001c38:	557d                	li	a0,-1
    80001c3a:	b7cd                	j	80001c1c <copyout+0x86>

0000000080001c3c <copyin>:
  while(len > 0){
    80001c3c:	ced9                	beqz	a3,80001cda <copyin+0x9e>
{
    80001c3e:	715d                	addi	sp,sp,-80
    80001c40:	e486                	sd	ra,72(sp)
    80001c42:	e0a2                	sd	s0,64(sp)
    80001c44:	fc26                	sd	s1,56(sp)
    80001c46:	f84a                	sd	s2,48(sp)
    80001c48:	f44e                	sd	s3,40(sp)
    80001c4a:	f052                	sd	s4,32(sp)
    80001c4c:	ec56                	sd	s5,24(sp)
    80001c4e:	e85a                	sd	s6,16(sp)
    80001c50:	e45e                	sd	s7,8(sp)
    80001c52:	e062                	sd	s8,0(sp)
    80001c54:	0880                	addi	s0,sp,80
    80001c56:	8b2a                	mv	s6,a0
    80001c58:	8aae                	mv	s5,a1
    80001c5a:	8932                	mv	s2,a2
    80001c5c:	8a36                	mv	s4,a3
    va0 = PGROUNDDOWN(srcva);
    80001c5e:	7c7d                	lui	s8,0xfffff
    n = PGSIZE - (srcva - va0);
    80001c60:	6b85                	lui	s7,0x1
    80001c62:	a805                	j	80001c92 <copyin+0x56>
    80001c64:	412984b3          	sub	s1,s3,s2
    80001c68:	94de                	add	s1,s1,s7
    if(n > len)
    80001c6a:	009a7363          	bgeu	s4,s1,80001c70 <copyin+0x34>
    80001c6e:	84d2                	mv	s1,s4
    memmove(dst, (void *)(pa0 + (srcva - va0)), n);
    80001c70:	413905b3          	sub	a1,s2,s3
    80001c74:	0004861b          	sext.w	a2,s1
    80001c78:	95aa                	add	a1,a1,a0
    80001c7a:	8556                	mv	a0,s5
    80001c7c:	fffff097          	auipc	ra,0xfffff
    80001c80:	1f4080e7          	jalr	500(ra) # 80000e70 <memmove>
    len -= n;
    80001c84:	409a0a33          	sub	s4,s4,s1
    dst += n;
    80001c88:	9aa6                	add	s5,s5,s1
    srcva = va0 + PGSIZE;
    80001c8a:	01798933          	add	s2,s3,s7
  while(len > 0){
    80001c8e:	020a0963          	beqz	s4,80001cc0 <copyin+0x84>
    va0 = PGROUNDDOWN(srcva);
    80001c92:	018979b3          	and	s3,s2,s8
    pa0 = walkaddr(pagetable, va0);
    80001c96:	85ce                	mv	a1,s3
    80001c98:	855a                	mv	a0,s6
    80001c9a:	fffff097          	auipc	ra,0xfffff
    80001c9e:	508080e7          	jalr	1288(ra) # 800011a2 <walkaddr>
    if(pa0 == 0)
    80001ca2:	f169                	bnez	a0,80001c64 <copyin+0x28>
      if (pagefault_handler(pagetable, va0) != 0)
    80001ca4:	85ce                	mv	a1,s3
    80001ca6:	855a                	mv	a0,s6
    80001ca8:	00000097          	auipc	ra,0x0
    80001cac:	dfe080e7          	jalr	-514(ra) # 80001aa6 <pagefault_handler>
    80001cb0:	e51d                	bnez	a0,80001cde <copyin+0xa2>
      pa0 = walkaddr(pagetable, va0);
    80001cb2:	85ce                	mv	a1,s3
    80001cb4:	855a                	mv	a0,s6
    80001cb6:	fffff097          	auipc	ra,0xfffff
    80001cba:	4ec080e7          	jalr	1260(ra) # 800011a2 <walkaddr>
    80001cbe:	b75d                	j	80001c64 <copyin+0x28>
  return 0;
    80001cc0:	4501                	li	a0,0
}
    80001cc2:	60a6                	ld	ra,72(sp)
    80001cc4:	6406                	ld	s0,64(sp)
    80001cc6:	74e2                	ld	s1,56(sp)
    80001cc8:	7942                	ld	s2,48(sp)
    80001cca:	79a2                	ld	s3,40(sp)
    80001ccc:	7a02                	ld	s4,32(sp)
    80001cce:	6ae2                	ld	s5,24(sp)
    80001cd0:	6b42                	ld	s6,16(sp)
    80001cd2:	6ba2                	ld	s7,8(sp)
    80001cd4:	6c02                	ld	s8,0(sp)
    80001cd6:	6161                	addi	sp,sp,80
    80001cd8:	8082                	ret
  return 0;
    80001cda:	4501                	li	a0,0
}
    80001cdc:	8082                	ret
        return -1;
    80001cde:	557d                	li	a0,-1
    80001ce0:	b7cd                	j	80001cc2 <copyin+0x86>

0000000080001ce2 <copyinstr>:
  while(got_null == 0 && max > 0){
    80001ce2:	c2f1                	beqz	a3,80001da6 <copyinstr+0xc4>
{
    80001ce4:	715d                	addi	sp,sp,-80
    80001ce6:	e486                	sd	ra,72(sp)
    80001ce8:	e0a2                	sd	s0,64(sp)
    80001cea:	fc26                	sd	s1,56(sp)
    80001cec:	f84a                	sd	s2,48(sp)
    80001cee:	f44e                	sd	s3,40(sp)
    80001cf0:	f052                	sd	s4,32(sp)
    80001cf2:	ec56                	sd	s5,24(sp)
    80001cf4:	e85a                	sd	s6,16(sp)
    80001cf6:	e45e                	sd	s7,8(sp)
    80001cf8:	0880                	addi	s0,sp,80
    80001cfa:	89aa                	mv	s3,a0
    80001cfc:	8b2e                	mv	s6,a1
    80001cfe:	8bb2                	mv	s7,a2
    80001d00:	8ab6                	mv	s5,a3
    va0 = PGROUNDDOWN(srcva);
    80001d02:	7a7d                	lui	s4,0xfffff
    n = PGSIZE - (srcva - va0);
    80001d04:	6905                	lui	s2,0x1
    80001d06:	a0a9                	j	80001d50 <copyinstr+0x6e>
      if (pagefault_handler(pagetable, va0) != 0)
    80001d08:	85a6                	mv	a1,s1
    80001d0a:	854e                	mv	a0,s3
    80001d0c:	00000097          	auipc	ra,0x0
    80001d10:	d9a080e7          	jalr	-614(ra) # 80001aa6 <pagefault_handler>
    80001d14:	e559                	bnez	a0,80001da2 <copyinstr+0xc0>
      pa0 = walkaddr(pagetable, va0);
    80001d16:	85a6                	mv	a1,s1
    80001d18:	854e                	mv	a0,s3
    80001d1a:	fffff097          	auipc	ra,0xfffff
    80001d1e:	488080e7          	jalr	1160(ra) # 800011a2 <walkaddr>
    80001d22:	a081                	j	80001d62 <copyinstr+0x80>
        *dst = '\0';
    80001d24:	00078023          	sb	zero,0(a5)
    80001d28:	4785                	li	a5,1
  if(got_null){
    80001d2a:	0017b793          	seqz	a5,a5
    80001d2e:	40f00533          	neg	a0,a5
}
    80001d32:	60a6                	ld	ra,72(sp)
    80001d34:	6406                	ld	s0,64(sp)
    80001d36:	74e2                	ld	s1,56(sp)
    80001d38:	7942                	ld	s2,48(sp)
    80001d3a:	79a2                	ld	s3,40(sp)
    80001d3c:	7a02                	ld	s4,32(sp)
    80001d3e:	6ae2                	ld	s5,24(sp)
    80001d40:	6b42                	ld	s6,16(sp)
    80001d42:	6ba2                	ld	s7,8(sp)
    80001d44:	6161                	addi	sp,sp,80
    80001d46:	8082                	ret
    srcva = va0 + PGSIZE;
    80001d48:	01248bb3          	add	s7,s1,s2
  while(got_null == 0 && max > 0){
    80001d4c:	040a8963          	beqz	s5,80001d9e <copyinstr+0xbc>
    va0 = PGROUNDDOWN(srcva);
    80001d50:	014bf4b3          	and	s1,s7,s4
    pa0 = walkaddr(pagetable, va0);
    80001d54:	85a6                	mv	a1,s1
    80001d56:	854e                	mv	a0,s3
    80001d58:	fffff097          	auipc	ra,0xfffff
    80001d5c:	44a080e7          	jalr	1098(ra) # 800011a2 <walkaddr>
    if(pa0 == 0)
    80001d60:	d545                	beqz	a0,80001d08 <copyinstr+0x26>
    n = PGSIZE - (srcva - va0);
    80001d62:	41748633          	sub	a2,s1,s7
    80001d66:	964a                	add	a2,a2,s2
    if(n > max)
    80001d68:	00caf363          	bgeu	s5,a2,80001d6e <copyinstr+0x8c>
    80001d6c:	8656                	mv	a2,s5
    char *p = (char *) (pa0 + (srcva - va0));
    80001d6e:	409b8bb3          	sub	s7,s7,s1
    80001d72:	9baa                	add	s7,s7,a0
    while(n > 0){
    80001d74:	da71                	beqz	a2,80001d48 <copyinstr+0x66>
    80001d76:	965a                	add	a2,a2,s6
    80001d78:	87da                	mv	a5,s6
      if(*p == '\0'){
    80001d7a:	416b8833          	sub	a6,s7,s6
    80001d7e:	1afd                	addi	s5,s5,-1
    80001d80:	9b56                	add	s6,s6,s5
    80001d82:	00f80733          	add	a4,a6,a5
    80001d86:	00074703          	lbu	a4,0(a4) # 1000 <_entry-0x7ffff000>
    80001d8a:	df49                	beqz	a4,80001d24 <copyinstr+0x42>
        *dst = *p;
    80001d8c:	00e78023          	sb	a4,0(a5)
      --max;
    80001d90:	40fb0ab3          	sub	s5,s6,a5
      dst++;
    80001d94:	0785                	addi	a5,a5,1
    while(n > 0){
    80001d96:	fec796e3          	bne	a5,a2,80001d82 <copyinstr+0xa0>
      dst++;
    80001d9a:	8b32                	mv	s6,a2
    80001d9c:	b775                	j	80001d48 <copyinstr+0x66>
    80001d9e:	4781                	li	a5,0
    80001da0:	b769                	j	80001d2a <copyinstr+0x48>
        return -1;
    80001da2:	557d                	li	a0,-1
    80001da4:	b779                	j	80001d32 <copyinstr+0x50>
  int got_null = 0;
    80001da6:	4781                	li	a5,0
  if(got_null){
    80001da8:	0017b793          	seqz	a5,a5
    80001dac:	40f00533          	neg	a0,a5
}
    80001db0:	8082                	ret

0000000080001db2 <writeback>:

void
writeback(struct vma* vma, uint64 addr, uint64 n)
{
    80001db2:	711d                	addi	sp,sp,-96
    80001db4:	ec86                	sd	ra,88(sp)
    80001db6:	e8a2                	sd	s0,80(sp)
    80001db8:	e4a6                	sd	s1,72(sp)
    80001dba:	e0ca                	sd	s2,64(sp)
    80001dbc:	fc4e                	sd	s3,56(sp)
    80001dbe:	f852                	sd	s4,48(sp)
    80001dc0:	f456                	sd	s5,40(sp)
    80001dc2:	f05a                	sd	s6,32(sp)
    80001dc4:	ec5e                	sd	s7,24(sp)
    80001dc6:	e862                	sd	s8,16(sp)
    80001dc8:	e466                	sd	s9,8(sp)
    80001dca:	1080                	addi	s0,sp,96
    80001dcc:	89aa                	mv	s3,a0
    80001dce:	84ae                	mv	s1,a1
    80001dd0:	8a32                	mv	s4,a2
  // we can only write a maximum of 3 * BSIZE once at a time, and PGSIZE = 4 * BSIZE
  printf("writeback: addr=%p, length=%d\n", addr, n);
    80001dd2:	00006517          	auipc	a0,0x6
    80001dd6:	3ee50513          	addi	a0,a0,1006 # 800081c0 <digits+0x180>
    80001dda:	ffffe097          	auipc	ra,0xffffe
    80001dde:	7a0080e7          	jalr	1952(ra) # 8000057a <printf>
  pte_t *pte;
  uint64 va;
  struct file *fp = vma->file;
    80001de2:	0189b903          	ld	s2,24(s3)
  pagetable_t pagetable = myproc()->pagetable;
    80001de6:	00000097          	auipc	ra,0x0
    80001dea:	3f0080e7          	jalr	1008(ra) # 800021d6 <myproc>
    80001dee:	05053b03          	ld	s6,80(a0)

  for (va = addr; va < addr + n; va += PGSIZE)
    80001df2:	9a26                	add	s4,s4,s1
    80001df4:	0d44f563          	bgeu	s1,s4,80001ebe <writeback+0x10c>
    if (*pte & PTE_D)
    {
      // need to write back entire page
      begin_op();
      ilock(fp->ip);
      writei(fp->ip, 1, va, vma->offset + va - vma->start, PGSIZE / 2);
    80001df8:	6a85                	lui	s5,0x1
    80001dfa:	800a8b93          	addi	s7,s5,-2048 # 800 <_entry-0x7ffff800>
      iunlock(fp->ip);
      end_op();
      begin_op();
      ilock(fp->ip);
      writei(fp->ip, 1, va + PGSIZE / 2, vma->offset + va + PGSIZE / 2 - vma->start, PGSIZE / 2);
    80001dfe:	6c05                	lui	s8,0x1
    80001e00:	800c0c1b          	addiw	s8,s8,-2048
    80001e04:	a04d                	j	80001ea6 <writeback+0xf4>
      begin_op();
    80001e06:	00003097          	auipc	ra,0x3
    80001e0a:	b8a080e7          	jalr	-1142(ra) # 80004990 <begin_op>
      ilock(fp->ip);
    80001e0e:	01893503          	ld	a0,24(s2) # 1018 <_entry-0x7fffefe8>
    80001e12:	00002097          	auipc	ra,0x2
    80001e16:	1ac080e7          	jalr	428(ra) # 80003fbe <ilock>
      writei(fp->ip, 1, va, vma->offset + va - vma->start, PGSIZE / 2);
    80001e1a:	00048c9b          	sext.w	s9,s1
    80001e1e:	0289b683          	ld	a3,40(s3)
    80001e22:	0009b783          	ld	a5,0(s3)
    80001e26:	9e9d                	subw	a3,a3,a5
    80001e28:	875e                	mv	a4,s7
    80001e2a:	9ea5                	addw	a3,a3,s1
    80001e2c:	8626                	mv	a2,s1
    80001e2e:	4585                	li	a1,1
    80001e30:	01893503          	ld	a0,24(s2)
    80001e34:	00002097          	auipc	ra,0x2
    80001e38:	536080e7          	jalr	1334(ra) # 8000436a <writei>
      iunlock(fp->ip);
    80001e3c:	01893503          	ld	a0,24(s2)
    80001e40:	00002097          	auipc	ra,0x2
    80001e44:	240080e7          	jalr	576(ra) # 80004080 <iunlock>
      end_op();
    80001e48:	00003097          	auipc	ra,0x3
    80001e4c:	bc8080e7          	jalr	-1080(ra) # 80004a10 <end_op>
      begin_op();
    80001e50:	00003097          	auipc	ra,0x3
    80001e54:	b40080e7          	jalr	-1216(ra) # 80004990 <begin_op>
      ilock(fp->ip);
    80001e58:	01893503          	ld	a0,24(s2)
    80001e5c:	00002097          	auipc	ra,0x2
    80001e60:	162080e7          	jalr	354(ra) # 80003fbe <ilock>
      writei(fp->ip, 1, va + PGSIZE / 2, vma->offset + va + PGSIZE / 2 - vma->start, PGSIZE / 2);
    80001e64:	0289b783          	ld	a5,40(s3)
    80001e68:	018787bb          	addw	a5,a5,s8
    80001e6c:	0009b683          	ld	a3,0(s3)
    80001e70:	40d786bb          	subw	a3,a5,a3
    80001e74:	875e                	mv	a4,s7
    80001e76:	019686bb          	addw	a3,a3,s9
    80001e7a:	01748633          	add	a2,s1,s7
    80001e7e:	4585                	li	a1,1
    80001e80:	01893503          	ld	a0,24(s2)
    80001e84:	00002097          	auipc	ra,0x2
    80001e88:	4e6080e7          	jalr	1254(ra) # 8000436a <writei>
      iunlock(fp->ip);
    80001e8c:	01893503          	ld	a0,24(s2)
    80001e90:	00002097          	auipc	ra,0x2
    80001e94:	1f0080e7          	jalr	496(ra) # 80004080 <iunlock>
      end_op();
    80001e98:	00003097          	auipc	ra,0x3
    80001e9c:	b78080e7          	jalr	-1160(ra) # 80004a10 <end_op>
  for (va = addr; va < addr + n; va += PGSIZE)
    80001ea0:	94d6                	add	s1,s1,s5
    80001ea2:	0144fe63          	bgeu	s1,s4,80001ebe <writeback+0x10c>
    pte = walk(pagetable, va, 0);
    80001ea6:	4601                	li	a2,0
    80001ea8:	85a6                	mv	a1,s1
    80001eaa:	855a                	mv	a0,s6
    80001eac:	fffff097          	auipc	ra,0xfffff
    80001eb0:	250080e7          	jalr	592(ra) # 800010fc <walk>
    if (*pte & PTE_D)
    80001eb4:	611c                	ld	a5,0(a0)
    80001eb6:	0807f793          	andi	a5,a5,128
    80001eba:	d3fd                	beqz	a5,80001ea0 <writeback+0xee>
    80001ebc:	b7a9                	j	80001e06 <writeback+0x54>
    }
  }
    80001ebe:	60e6                	ld	ra,88(sp)
    80001ec0:	6446                	ld	s0,80(sp)
    80001ec2:	64a6                	ld	s1,72(sp)
    80001ec4:	6906                	ld	s2,64(sp)
    80001ec6:	79e2                	ld	s3,56(sp)
    80001ec8:	7a42                	ld	s4,48(sp)
    80001eca:	7aa2                	ld	s5,40(sp)
    80001ecc:	7b02                	ld	s6,32(sp)
    80001ece:	6be2                	ld	s7,24(sp)
    80001ed0:	6c42                	ld	s8,16(sp)
    80001ed2:	6ca2                	ld	s9,8(sp)
    80001ed4:	6125                	addi	sp,sp,96
    80001ed6:	8082                	ret

0000000080001ed8 <sys_munmap>:
{
    80001ed8:	7139                	addi	sp,sp,-64
    80001eda:	fc06                	sd	ra,56(sp)
    80001edc:	f822                	sd	s0,48(sp)
    80001ede:	f426                	sd	s1,40(sp)
    80001ee0:	f04a                	sd	s2,32(sp)
    80001ee2:	ec4e                	sd	s3,24(sp)
    80001ee4:	0080                	addi	s0,sp,64
  if (argaddr(0, &addr) < 0 || argint(1, &length) < 0)
    80001ee6:	fc840593          	addi	a1,s0,-56
    80001eea:	4501                	li	a0,0
    80001eec:	00001097          	auipc	ra,0x1
    80001ef0:	582080e7          	jalr	1410(ra) # 8000346e <argaddr>
    return -1;
    80001ef4:	597d                	li	s2,-1
  if (argaddr(0, &addr) < 0 || argint(1, &length) < 0)
    80001ef6:	02054563          	bltz	a0,80001f20 <sys_munmap+0x48>
    80001efa:	fc440593          	addi	a1,s0,-60
    80001efe:	4505                	li	a0,1
    80001f00:	00001097          	auipc	ra,0x1
    80001f04:	54c080e7          	jalr	1356(ra) # 8000344c <argint>
    80001f08:	12054463          	bltz	a0,80002030 <sys_munmap+0x158>
  if (PGROUNDDOWN(addr) != addr || PGROUNDDOWN(length) != length)
    80001f0c:	fc843783          	ld	a5,-56(s0)
    80001f10:	03479713          	slli	a4,a5,0x34
    80001f14:	e711                	bnez	a4,80001f20 <sys_munmap+0x48>
    80001f16:	fc442783          	lw	a5,-60(s0)
    80001f1a:	03479713          	slli	a4,a5,0x34
    80001f1e:	cb09                	beqz	a4,80001f30 <sys_munmap+0x58>
}
    80001f20:	854a                	mv	a0,s2
    80001f22:	70e2                	ld	ra,56(sp)
    80001f24:	7442                	ld	s0,48(sp)
    80001f26:	74a2                	ld	s1,40(sp)
    80001f28:	7902                	ld	s2,32(sp)
    80001f2a:	69e2                	ld	s3,24(sp)
    80001f2c:	6121                	addi	sp,sp,64
    80001f2e:	8082                	ret
  struct vma *vma = myproc()->vma, *prev = 0;
    80001f30:	00000097          	auipc	ra,0x0
    80001f34:	2a6080e7          	jalr	678(ra) # 800021d6 <myproc>
    80001f38:	16853483          	ld	s1,360(a0)
  for (; vma != 0; vma = vma->next)
    80001f3c:	cce5                	beqz	s1,80002034 <sys_munmap+0x15c>
    if (addr >= vma->start && addr < vma->end)
    80001f3e:	fc843583          	ld	a1,-56(s0)
  struct vma *vma = myproc()->vma, *prev = 0;
    80001f42:	4981                	li	s3,0
    80001f44:	a029                	j	80001f4e <sys_munmap+0x76>
  for (; vma != 0; vma = vma->next)
    80001f46:	7c9c                	ld	a5,56(s1)
    80001f48:	89a6                	mv	s3,s1
    80001f4a:	cfb5                	beqz	a5,80001fc6 <sys_munmap+0xee>
    80001f4c:	84be                	mv	s1,a5
    if (addr >= vma->start && addr < vma->end)
    80001f4e:	609c                	ld	a5,0(s1)
    80001f50:	fef5ebe3          	bltu	a1,a5,80001f46 <sys_munmap+0x6e>
    80001f54:	6498                	ld	a4,8(s1)
    80001f56:	fee5f8e3          	bgeu	a1,a4,80001f46 <sys_munmap+0x6e>
  if (addr != vma->start && addr + length != vma->end)
    80001f5a:	00b78863          	beq	a5,a1,80001f6a <sys_munmap+0x92>
    80001f5e:	fc442783          	lw	a5,-60(s0)
    80001f62:	97ae                	add	a5,a5,a1
    return -1;
    80001f64:	597d                	li	s2,-1
  if (addr != vma->start && addr + length != vma->end)
    80001f66:	faf71de3          	bne	a4,a5,80001f20 <sys_munmap+0x48>
  if ((vma->prot & PROT_WRITE) && vma->flags == MAP_SHARED)
    80001f6a:	489c                	lw	a5,16(s1)
    80001f6c:	8b89                	andi	a5,a5,2
    80001f6e:	c789                	beqz	a5,80001f78 <sys_munmap+0xa0>
    80001f70:	5898                	lw	a4,48(s1)
    80001f72:	4785                	li	a5,1
    80001f74:	04f70b63          	beq	a4,a5,80001fca <sys_munmap+0xf2>
  uvmunmap(myproc()->pagetable, addr, length / PGSIZE, 1);
    80001f78:	00000097          	auipc	ra,0x0
    80001f7c:	25e080e7          	jalr	606(ra) # 800021d6 <myproc>
    80001f80:	fc442783          	lw	a5,-60(s0)
    80001f84:	41f7d61b          	sraiw	a2,a5,0x1f
    80001f88:	0146561b          	srliw	a2,a2,0x14
    80001f8c:	9e3d                	addw	a2,a2,a5
    80001f8e:	4685                	li	a3,1
    80001f90:	40c6561b          	sraiw	a2,a2,0xc
    80001f94:	fc843583          	ld	a1,-56(s0)
    80001f98:	6928                	ld	a0,80(a0)
    80001f9a:	fffff097          	auipc	ra,0xfffff
    80001f9e:	3fe080e7          	jalr	1022(ra) # 80001398 <uvmunmap>
  if (addr == vma->start)
    80001fa2:	fc843783          	ld	a5,-56(s0)
    80001fa6:	6098                	ld	a4,0(s1)
    80001fa8:	02f70963          	beq	a4,a5,80001fda <sys_munmap+0x102>
  else if (addr + length == vma->end)
    80001fac:	fc442703          	lw	a4,-60(s0)
    80001fb0:	00e78633          	add	a2,a5,a4
    80001fb4:	6494                	ld	a3,8(s1)
    80001fb6:	02d60f63          	beq	a2,a3,80001ff4 <sys_munmap+0x11c>
  if (vma->length == 0)
    80001fba:	0204b903          	ld	s2,32(s1)
    80001fbe:	04090163          	beqz	s2,80002000 <sys_munmap+0x128>
  return 0;
    80001fc2:	4901                	li	s2,0
    80001fc4:	bfb1                	j	80001f20 <sys_munmap+0x48>
    return -1;
    80001fc6:	597d                	li	s2,-1
    80001fc8:	bfa1                	j	80001f20 <sys_munmap+0x48>
    writeback(vma, addr, length);
    80001fca:	fc442603          	lw	a2,-60(s0)
    80001fce:	8526                	mv	a0,s1
    80001fd0:	00000097          	auipc	ra,0x0
    80001fd4:	de2080e7          	jalr	-542(ra) # 80001db2 <writeback>
    80001fd8:	b745                	j	80001f78 <sys_munmap+0xa0>
    vma->start = addr + length;
    80001fda:	fc442703          	lw	a4,-60(s0)
    80001fde:	97ba                	add	a5,a5,a4
    80001fe0:	e09c                	sd	a5,0(s1)
    vma->offset += length;
    80001fe2:	fc442683          	lw	a3,-60(s0)
    80001fe6:	7498                	ld	a4,40(s1)
    80001fe8:	9736                	add	a4,a4,a3
    80001fea:	f498                	sd	a4,40(s1)
    vma->length -= length;
    80001fec:	709c                	ld	a5,32(s1)
    80001fee:	8f95                	sub	a5,a5,a3
    80001ff0:	f09c                	sd	a5,32(s1)
    80001ff2:	b7e1                	j	80001fba <sys_munmap+0xe2>
    vma->end = addr;
    80001ff4:	e49c                	sd	a5,8(s1)
    vma->length -= length;
    80001ff6:	709c                	ld	a5,32(s1)
    80001ff8:	40e78733          	sub	a4,a5,a4
    80001ffc:	f098                	sd	a4,32(s1)
    80001ffe:	bf75                	j	80001fba <sys_munmap+0xe2>
    fileclose(vma->file);
    80002000:	6c88                	ld	a0,24(s1)
    80002002:	00003097          	auipc	ra,0x3
    80002006:	e62080e7          	jalr	-414(ra) # 80004e64 <fileclose>
    if (prev == 0)
    8000200a:	00098b63          	beqz	s3,80002020 <sys_munmap+0x148>
      prev->next = vma->next;
    8000200e:	7c9c                	ld	a5,56(s1)
    80002010:	02f9bc23          	sd	a5,56(s3)
    kvma_free(vma);
    80002014:	8526                	mv	a0,s1
    80002016:	fffff097          	auipc	ra,0xfffff
    8000201a:	af4080e7          	jalr	-1292(ra) # 80000b0a <kvma_free>
    8000201e:	b709                	j	80001f20 <sys_munmap+0x48>
      myproc()->vma = vma->next;
    80002020:	00000097          	auipc	ra,0x0
    80002024:	1b6080e7          	jalr	438(ra) # 800021d6 <myproc>
    80002028:	7c9c                	ld	a5,56(s1)
    8000202a:	16f53423          	sd	a5,360(a0)
    8000202e:	b7dd                	j	80002014 <sys_munmap+0x13c>
    return -1;
    80002030:	597d                	li	s2,-1
    80002032:	b5fd                	j	80001f20 <sys_munmap+0x48>
    return -1;
    80002034:	597d                	li	s2,-1
    80002036:	b5ed                	j	80001f20 <sys_munmap+0x48>

0000000080002038 <wakeup1>:

// Wake up p if it is sleeping in wait(); used by exit().
// Caller must hold p->lock.
static void
wakeup1(struct proc *p)
{
    80002038:	1101                	addi	sp,sp,-32
    8000203a:	ec06                	sd	ra,24(sp)
    8000203c:	e822                	sd	s0,16(sp)
    8000203e:	e426                	sd	s1,8(sp)
    80002040:	1000                	addi	s0,sp,32
    80002042:	84aa                	mv	s1,a0
  if(!holding(&p->lock))
    80002044:	fffff097          	auipc	ra,0xfffff
    80002048:	c56080e7          	jalr	-938(ra) # 80000c9a <holding>
    8000204c:	c909                	beqz	a0,8000205e <wakeup1+0x26>
    panic("wakeup1");
  if(p->chan == p && p->state == SLEEPING) {
    8000204e:	749c                	ld	a5,40(s1)
    80002050:	00978f63          	beq	a5,s1,8000206e <wakeup1+0x36>
    p->state = RUNNABLE;
  }
}
    80002054:	60e2                	ld	ra,24(sp)
    80002056:	6442                	ld	s0,16(sp)
    80002058:	64a2                	ld	s1,8(sp)
    8000205a:	6105                	addi	sp,sp,32
    8000205c:	8082                	ret
    panic("wakeup1");
    8000205e:	00006517          	auipc	a0,0x6
    80002062:	18250513          	addi	a0,a0,386 # 800081e0 <digits+0x1a0>
    80002066:	ffffe097          	auipc	ra,0xffffe
    8000206a:	4ca080e7          	jalr	1226(ra) # 80000530 <panic>
  if(p->chan == p && p->state == SLEEPING) {
    8000206e:	4c98                	lw	a4,24(s1)
    80002070:	4785                	li	a5,1
    80002072:	fef711e3          	bne	a4,a5,80002054 <wakeup1+0x1c>
    p->state = RUNNABLE;
    80002076:	4789                	li	a5,2
    80002078:	cc9c                	sw	a5,24(s1)
}
    8000207a:	bfe9                	j	80002054 <wakeup1+0x1c>

000000008000207c <proc_mapstacks>:
proc_mapstacks(pagetable_t kpgtbl) {
    8000207c:	7139                	addi	sp,sp,-64
    8000207e:	fc06                	sd	ra,56(sp)
    80002080:	f822                	sd	s0,48(sp)
    80002082:	f426                	sd	s1,40(sp)
    80002084:	f04a                	sd	s2,32(sp)
    80002086:	ec4e                	sd	s3,24(sp)
    80002088:	e852                	sd	s4,16(sp)
    8000208a:	e456                	sd	s5,8(sp)
    8000208c:	e05a                	sd	s6,0(sp)
    8000208e:	0080                	addi	s0,sp,64
    80002090:	89aa                	mv	s3,a0
  for(p = proc; p < &proc[NPROC]; p++) {
    80002092:	0000f497          	auipc	s1,0xf
    80002096:	64648493          	addi	s1,s1,1606 # 800116d8 <proc>
    uint64 va = KSTACK((int) (p - proc));
    8000209a:	8b26                	mv	s6,s1
    8000209c:	00006a97          	auipc	s5,0x6
    800020a0:	f64a8a93          	addi	s5,s5,-156 # 80008000 <etext>
    800020a4:	04000937          	lui	s2,0x4000
    800020a8:	197d                	addi	s2,s2,-1
    800020aa:	0932                	slli	s2,s2,0xc
  for(p = proc; p < &proc[NPROC]; p++) {
    800020ac:	00015a17          	auipc	s4,0x15
    800020b0:	22ca0a13          	addi	s4,s4,556 # 800172d8 <tickslock>
    char *pa = kalloc();
    800020b4:	fffff097          	auipc	ra,0xfffff
    800020b8:	9f6080e7          	jalr	-1546(ra) # 80000aaa <kalloc>
    800020bc:	862a                	mv	a2,a0
    if(pa == 0)
    800020be:	c131                	beqz	a0,80002102 <proc_mapstacks+0x86>
    uint64 va = KSTACK((int) (p - proc));
    800020c0:	416485b3          	sub	a1,s1,s6
    800020c4:	8591                	srai	a1,a1,0x4
    800020c6:	000ab783          	ld	a5,0(s5)
    800020ca:	02f585b3          	mul	a1,a1,a5
    800020ce:	2585                	addiw	a1,a1,1
    800020d0:	00d5959b          	slliw	a1,a1,0xd
    kvmmap(kpgtbl, va, (uint64)pa, PGSIZE, PTE_R | PTE_W);
    800020d4:	4719                	li	a4,6
    800020d6:	6685                	lui	a3,0x1
    800020d8:	40b905b3          	sub	a1,s2,a1
    800020dc:	854e                	mv	a0,s3
    800020de:	fffff097          	auipc	ra,0xfffff
    800020e2:	194080e7          	jalr	404(ra) # 80001272 <kvmmap>
  for(p = proc; p < &proc[NPROC]; p++) {
    800020e6:	17048493          	addi	s1,s1,368
    800020ea:	fd4495e3          	bne	s1,s4,800020b4 <proc_mapstacks+0x38>
}
    800020ee:	70e2                	ld	ra,56(sp)
    800020f0:	7442                	ld	s0,48(sp)
    800020f2:	74a2                	ld	s1,40(sp)
    800020f4:	7902                	ld	s2,32(sp)
    800020f6:	69e2                	ld	s3,24(sp)
    800020f8:	6a42                	ld	s4,16(sp)
    800020fa:	6aa2                	ld	s5,8(sp)
    800020fc:	6b02                	ld	s6,0(sp)
    800020fe:	6121                	addi	sp,sp,64
    80002100:	8082                	ret
      panic("kalloc");
    80002102:	00006517          	auipc	a0,0x6
    80002106:	0e650513          	addi	a0,a0,230 # 800081e8 <digits+0x1a8>
    8000210a:	ffffe097          	auipc	ra,0xffffe
    8000210e:	426080e7          	jalr	1062(ra) # 80000530 <panic>

0000000080002112 <procinit>:
{
    80002112:	7139                	addi	sp,sp,-64
    80002114:	fc06                	sd	ra,56(sp)
    80002116:	f822                	sd	s0,48(sp)
    80002118:	f426                	sd	s1,40(sp)
    8000211a:	f04a                	sd	s2,32(sp)
    8000211c:	ec4e                	sd	s3,24(sp)
    8000211e:	e852                	sd	s4,16(sp)
    80002120:	e456                	sd	s5,8(sp)
    80002122:	e05a                	sd	s6,0(sp)
    80002124:	0080                	addi	s0,sp,64
  initlock(&pid_lock, "nextpid");
    80002126:	00006597          	auipc	a1,0x6
    8000212a:	0ca58593          	addi	a1,a1,202 # 800081f0 <digits+0x1b0>
    8000212e:	0000f517          	auipc	a0,0xf
    80002132:	19250513          	addi	a0,a0,402 # 800112c0 <pid_lock>
    80002136:	fffff097          	auipc	ra,0xfffff
    8000213a:	b4e080e7          	jalr	-1202(ra) # 80000c84 <initlock>
  for(p = proc; p < &proc[NPROC]; p++) {
    8000213e:	0000f497          	auipc	s1,0xf
    80002142:	59a48493          	addi	s1,s1,1434 # 800116d8 <proc>
      initlock(&p->lock, "proc");
    80002146:	00006b17          	auipc	s6,0x6
    8000214a:	0b2b0b13          	addi	s6,s6,178 # 800081f8 <digits+0x1b8>
      p->kstack = KSTACK((int) (p - proc));
    8000214e:	8aa6                	mv	s5,s1
    80002150:	00006a17          	auipc	s4,0x6
    80002154:	eb0a0a13          	addi	s4,s4,-336 # 80008000 <etext>
    80002158:	04000937          	lui	s2,0x4000
    8000215c:	197d                	addi	s2,s2,-1
    8000215e:	0932                	slli	s2,s2,0xc
  for(p = proc; p < &proc[NPROC]; p++) {
    80002160:	00015997          	auipc	s3,0x15
    80002164:	17898993          	addi	s3,s3,376 # 800172d8 <tickslock>
      initlock(&p->lock, "proc");
    80002168:	85da                	mv	a1,s6
    8000216a:	8526                	mv	a0,s1
    8000216c:	fffff097          	auipc	ra,0xfffff
    80002170:	b18080e7          	jalr	-1256(ra) # 80000c84 <initlock>
      p->kstack = KSTACK((int) (p - proc));
    80002174:	415487b3          	sub	a5,s1,s5
    80002178:	8791                	srai	a5,a5,0x4
    8000217a:	000a3703          	ld	a4,0(s4)
    8000217e:	02e787b3          	mul	a5,a5,a4
    80002182:	2785                	addiw	a5,a5,1
    80002184:	00d7979b          	slliw	a5,a5,0xd
    80002188:	40f907b3          	sub	a5,s2,a5
    8000218c:	e0bc                	sd	a5,64(s1)
  for(p = proc; p < &proc[NPROC]; p++) {
    8000218e:	17048493          	addi	s1,s1,368
    80002192:	fd349be3          	bne	s1,s3,80002168 <procinit+0x56>
}
    80002196:	70e2                	ld	ra,56(sp)
    80002198:	7442                	ld	s0,48(sp)
    8000219a:	74a2                	ld	s1,40(sp)
    8000219c:	7902                	ld	s2,32(sp)
    8000219e:	69e2                	ld	s3,24(sp)
    800021a0:	6a42                	ld	s4,16(sp)
    800021a2:	6aa2                	ld	s5,8(sp)
    800021a4:	6b02                	ld	s6,0(sp)
    800021a6:	6121                	addi	sp,sp,64
    800021a8:	8082                	ret

00000000800021aa <cpuid>:
{
    800021aa:	1141                	addi	sp,sp,-16
    800021ac:	e422                	sd	s0,8(sp)
    800021ae:	0800                	addi	s0,sp,16
  asm volatile("mv %0, tp" : "=r" (x) );
    800021b0:	8512                	mv	a0,tp
}
    800021b2:	2501                	sext.w	a0,a0
    800021b4:	6422                	ld	s0,8(sp)
    800021b6:	0141                	addi	sp,sp,16
    800021b8:	8082                	ret

00000000800021ba <mycpu>:
mycpu(void) {
    800021ba:	1141                	addi	sp,sp,-16
    800021bc:	e422                	sd	s0,8(sp)
    800021be:	0800                	addi	s0,sp,16
    800021c0:	8792                	mv	a5,tp
  struct cpu *c = &cpus[id];
    800021c2:	2781                	sext.w	a5,a5
    800021c4:	079e                	slli	a5,a5,0x7
}
    800021c6:	0000f517          	auipc	a0,0xf
    800021ca:	11250513          	addi	a0,a0,274 # 800112d8 <cpus>
    800021ce:	953e                	add	a0,a0,a5
    800021d0:	6422                	ld	s0,8(sp)
    800021d2:	0141                	addi	sp,sp,16
    800021d4:	8082                	ret

00000000800021d6 <myproc>:
myproc(void) {
    800021d6:	1101                	addi	sp,sp,-32
    800021d8:	ec06                	sd	ra,24(sp)
    800021da:	e822                	sd	s0,16(sp)
    800021dc:	e426                	sd	s1,8(sp)
    800021de:	1000                	addi	s0,sp,32
  push_off();
    800021e0:	fffff097          	auipc	ra,0xfffff
    800021e4:	ae8080e7          	jalr	-1304(ra) # 80000cc8 <push_off>
    800021e8:	8792                	mv	a5,tp
  struct proc *p = c->proc;
    800021ea:	2781                	sext.w	a5,a5
    800021ec:	079e                	slli	a5,a5,0x7
    800021ee:	0000f717          	auipc	a4,0xf
    800021f2:	0d270713          	addi	a4,a4,210 # 800112c0 <pid_lock>
    800021f6:	97ba                	add	a5,a5,a4
    800021f8:	6f84                	ld	s1,24(a5)
  pop_off();
    800021fa:	fffff097          	auipc	ra,0xfffff
    800021fe:	b6e080e7          	jalr	-1170(ra) # 80000d68 <pop_off>
}
    80002202:	8526                	mv	a0,s1
    80002204:	60e2                	ld	ra,24(sp)
    80002206:	6442                	ld	s0,16(sp)
    80002208:	64a2                	ld	s1,8(sp)
    8000220a:	6105                	addi	sp,sp,32
    8000220c:	8082                	ret

000000008000220e <forkret>:
{
    8000220e:	1141                	addi	sp,sp,-16
    80002210:	e406                	sd	ra,8(sp)
    80002212:	e022                	sd	s0,0(sp)
    80002214:	0800                	addi	s0,sp,16
  release(&myproc()->lock);
    80002216:	00000097          	auipc	ra,0x0
    8000221a:	fc0080e7          	jalr	-64(ra) # 800021d6 <myproc>
    8000221e:	fffff097          	auipc	ra,0xfffff
    80002222:	baa080e7          	jalr	-1110(ra) # 80000dc8 <release>
  if (first) {
    80002226:	00006797          	auipc	a5,0x6
    8000222a:	5fa7a783          	lw	a5,1530(a5) # 80008820 <first.1702>
    8000222e:	eb89                	bnez	a5,80002240 <forkret+0x32>
  usertrapret();
    80002230:	00001097          	auipc	ra,0x1
    80002234:	d6e080e7          	jalr	-658(ra) # 80002f9e <usertrapret>
}
    80002238:	60a2                	ld	ra,8(sp)
    8000223a:	6402                	ld	s0,0(sp)
    8000223c:	0141                	addi	sp,sp,16
    8000223e:	8082                	ret
    first = 0;
    80002240:	00006797          	auipc	a5,0x6
    80002244:	5e07a023          	sw	zero,1504(a5) # 80008820 <first.1702>
    fsinit(ROOTDEV);
    80002248:	4505                	li	a0,1
    8000224a:	00002097          	auipc	ra,0x2
    8000224e:	afc080e7          	jalr	-1284(ra) # 80003d46 <fsinit>
    80002252:	bff9                	j	80002230 <forkret+0x22>

0000000080002254 <allocpid>:
allocpid() {
    80002254:	1101                	addi	sp,sp,-32
    80002256:	ec06                	sd	ra,24(sp)
    80002258:	e822                	sd	s0,16(sp)
    8000225a:	e426                	sd	s1,8(sp)
    8000225c:	e04a                	sd	s2,0(sp)
    8000225e:	1000                	addi	s0,sp,32
  acquire(&pid_lock);
    80002260:	0000f917          	auipc	s2,0xf
    80002264:	06090913          	addi	s2,s2,96 # 800112c0 <pid_lock>
    80002268:	854a                	mv	a0,s2
    8000226a:	fffff097          	auipc	ra,0xfffff
    8000226e:	aaa080e7          	jalr	-1366(ra) # 80000d14 <acquire>
  pid = nextpid;
    80002272:	00006797          	auipc	a5,0x6
    80002276:	5b278793          	addi	a5,a5,1458 # 80008824 <nextpid>
    8000227a:	4384                	lw	s1,0(a5)
  nextpid = nextpid + 1;
    8000227c:	0014871b          	addiw	a4,s1,1
    80002280:	c398                	sw	a4,0(a5)
  release(&pid_lock);
    80002282:	854a                	mv	a0,s2
    80002284:	fffff097          	auipc	ra,0xfffff
    80002288:	b44080e7          	jalr	-1212(ra) # 80000dc8 <release>
}
    8000228c:	8526                	mv	a0,s1
    8000228e:	60e2                	ld	ra,24(sp)
    80002290:	6442                	ld	s0,16(sp)
    80002292:	64a2                	ld	s1,8(sp)
    80002294:	6902                	ld	s2,0(sp)
    80002296:	6105                	addi	sp,sp,32
    80002298:	8082                	ret

000000008000229a <proc_pagetable>:
{
    8000229a:	1101                	addi	sp,sp,-32
    8000229c:	ec06                	sd	ra,24(sp)
    8000229e:	e822                	sd	s0,16(sp)
    800022a0:	e426                	sd	s1,8(sp)
    800022a2:	e04a                	sd	s2,0(sp)
    800022a4:	1000                	addi	s0,sp,32
    800022a6:	892a                	mv	s2,a0
  pagetable = uvmcreate();
    800022a8:	fffff097          	auipc	ra,0xfffff
    800022ac:	1a6080e7          	jalr	422(ra) # 8000144e <uvmcreate>
    800022b0:	84aa                	mv	s1,a0
  if(pagetable == 0)
    800022b2:	c121                	beqz	a0,800022f2 <proc_pagetable+0x58>
  if(mappages(pagetable, TRAMPOLINE, PGSIZE,
    800022b4:	4729                	li	a4,10
    800022b6:	00005697          	auipc	a3,0x5
    800022ba:	d4a68693          	addi	a3,a3,-694 # 80007000 <_trampoline>
    800022be:	6605                	lui	a2,0x1
    800022c0:	040005b7          	lui	a1,0x4000
    800022c4:	15fd                	addi	a1,a1,-1
    800022c6:	05b2                	slli	a1,a1,0xc
    800022c8:	fffff097          	auipc	ra,0xfffff
    800022cc:	f1c080e7          	jalr	-228(ra) # 800011e4 <mappages>
    800022d0:	02054863          	bltz	a0,80002300 <proc_pagetable+0x66>
  if(mappages(pagetable, TRAPFRAME, PGSIZE,
    800022d4:	4719                	li	a4,6
    800022d6:	05893683          	ld	a3,88(s2)
    800022da:	6605                	lui	a2,0x1
    800022dc:	020005b7          	lui	a1,0x2000
    800022e0:	15fd                	addi	a1,a1,-1
    800022e2:	05b6                	slli	a1,a1,0xd
    800022e4:	8526                	mv	a0,s1
    800022e6:	fffff097          	auipc	ra,0xfffff
    800022ea:	efe080e7          	jalr	-258(ra) # 800011e4 <mappages>
    800022ee:	02054163          	bltz	a0,80002310 <proc_pagetable+0x76>
}
    800022f2:	8526                	mv	a0,s1
    800022f4:	60e2                	ld	ra,24(sp)
    800022f6:	6442                	ld	s0,16(sp)
    800022f8:	64a2                	ld	s1,8(sp)
    800022fa:	6902                	ld	s2,0(sp)
    800022fc:	6105                	addi	sp,sp,32
    800022fe:	8082                	ret
    uvmfree(pagetable, 0);
    80002300:	4581                	li	a1,0
    80002302:	8526                	mv	a0,s1
    80002304:	fffff097          	auipc	ra,0xfffff
    80002308:	346080e7          	jalr	838(ra) # 8000164a <uvmfree>
    return 0;
    8000230c:	4481                	li	s1,0
    8000230e:	b7d5                	j	800022f2 <proc_pagetable+0x58>
    uvmunmap(pagetable, TRAMPOLINE, 1, 0);
    80002310:	4681                	li	a3,0
    80002312:	4605                	li	a2,1
    80002314:	040005b7          	lui	a1,0x4000
    80002318:	15fd                	addi	a1,a1,-1
    8000231a:	05b2                	slli	a1,a1,0xc
    8000231c:	8526                	mv	a0,s1
    8000231e:	fffff097          	auipc	ra,0xfffff
    80002322:	07a080e7          	jalr	122(ra) # 80001398 <uvmunmap>
    uvmfree(pagetable, 0);
    80002326:	4581                	li	a1,0
    80002328:	8526                	mv	a0,s1
    8000232a:	fffff097          	auipc	ra,0xfffff
    8000232e:	320080e7          	jalr	800(ra) # 8000164a <uvmfree>
    return 0;
    80002332:	4481                	li	s1,0
    80002334:	bf7d                	j	800022f2 <proc_pagetable+0x58>

0000000080002336 <proc_freepagetable>:
{
    80002336:	1101                	addi	sp,sp,-32
    80002338:	ec06                	sd	ra,24(sp)
    8000233a:	e822                	sd	s0,16(sp)
    8000233c:	e426                	sd	s1,8(sp)
    8000233e:	e04a                	sd	s2,0(sp)
    80002340:	1000                	addi	s0,sp,32
    80002342:	84aa                	mv	s1,a0
    80002344:	892e                	mv	s2,a1
  uvmunmap(pagetable, TRAMPOLINE, 1, 0);
    80002346:	4681                	li	a3,0
    80002348:	4605                	li	a2,1
    8000234a:	040005b7          	lui	a1,0x4000
    8000234e:	15fd                	addi	a1,a1,-1
    80002350:	05b2                	slli	a1,a1,0xc
    80002352:	fffff097          	auipc	ra,0xfffff
    80002356:	046080e7          	jalr	70(ra) # 80001398 <uvmunmap>
  uvmunmap(pagetable, TRAPFRAME, 1, 0);
    8000235a:	4681                	li	a3,0
    8000235c:	4605                	li	a2,1
    8000235e:	020005b7          	lui	a1,0x2000
    80002362:	15fd                	addi	a1,a1,-1
    80002364:	05b6                	slli	a1,a1,0xd
    80002366:	8526                	mv	a0,s1
    80002368:	fffff097          	auipc	ra,0xfffff
    8000236c:	030080e7          	jalr	48(ra) # 80001398 <uvmunmap>
  uvmfree(pagetable, sz);
    80002370:	85ca                	mv	a1,s2
    80002372:	8526                	mv	a0,s1
    80002374:	fffff097          	auipc	ra,0xfffff
    80002378:	2d6080e7          	jalr	726(ra) # 8000164a <uvmfree>
}
    8000237c:	60e2                	ld	ra,24(sp)
    8000237e:	6442                	ld	s0,16(sp)
    80002380:	64a2                	ld	s1,8(sp)
    80002382:	6902                	ld	s2,0(sp)
    80002384:	6105                	addi	sp,sp,32
    80002386:	8082                	ret

0000000080002388 <freeproc>:
{
    80002388:	1101                	addi	sp,sp,-32
    8000238a:	ec06                	sd	ra,24(sp)
    8000238c:	e822                	sd	s0,16(sp)
    8000238e:	e426                	sd	s1,8(sp)
    80002390:	1000                	addi	s0,sp,32
    80002392:	84aa                	mv	s1,a0
  if(p->trapframe)
    80002394:	6d28                	ld	a0,88(a0)
    80002396:	c509                	beqz	a0,800023a0 <freeproc+0x18>
    kfree((void*)p->trapframe);
    80002398:	ffffe097          	auipc	ra,0xffffe
    8000239c:	652080e7          	jalr	1618(ra) # 800009ea <kfree>
  p->trapframe = 0;
    800023a0:	0404bc23          	sd	zero,88(s1)
  if(p->pagetable)
    800023a4:	68a8                	ld	a0,80(s1)
    800023a6:	c511                	beqz	a0,800023b2 <freeproc+0x2a>
    proc_freepagetable(p->pagetable, p->sz);
    800023a8:	64ac                	ld	a1,72(s1)
    800023aa:	00000097          	auipc	ra,0x0
    800023ae:	f8c080e7          	jalr	-116(ra) # 80002336 <proc_freepagetable>
  p->pagetable = 0;
    800023b2:	0404b823          	sd	zero,80(s1)
  p->sz = 0;
    800023b6:	0404b423          	sd	zero,72(s1)
  p->pid = 0;
    800023ba:	0204ac23          	sw	zero,56(s1)
  p->parent = 0;
    800023be:	0204b023          	sd	zero,32(s1)
  p->name[0] = 0;
    800023c2:	14048c23          	sb	zero,344(s1)
  p->chan = 0;
    800023c6:	0204b423          	sd	zero,40(s1)
  p->killed = 0;
    800023ca:	0204a823          	sw	zero,48(s1)
  p->xstate = 0;
    800023ce:	0204aa23          	sw	zero,52(s1)
  p->state = UNUSED;
    800023d2:	0004ac23          	sw	zero,24(s1)
}
    800023d6:	60e2                	ld	ra,24(sp)
    800023d8:	6442                	ld	s0,16(sp)
    800023da:	64a2                	ld	s1,8(sp)
    800023dc:	6105                	addi	sp,sp,32
    800023de:	8082                	ret

00000000800023e0 <allocproc>:
{
    800023e0:	1101                	addi	sp,sp,-32
    800023e2:	ec06                	sd	ra,24(sp)
    800023e4:	e822                	sd	s0,16(sp)
    800023e6:	e426                	sd	s1,8(sp)
    800023e8:	e04a                	sd	s2,0(sp)
    800023ea:	1000                	addi	s0,sp,32
  for(p = proc; p < &proc[NPROC]; p++) {
    800023ec:	0000f497          	auipc	s1,0xf
    800023f0:	2ec48493          	addi	s1,s1,748 # 800116d8 <proc>
    800023f4:	00015917          	auipc	s2,0x15
    800023f8:	ee490913          	addi	s2,s2,-284 # 800172d8 <tickslock>
    acquire(&p->lock);
    800023fc:	8526                	mv	a0,s1
    800023fe:	fffff097          	auipc	ra,0xfffff
    80002402:	916080e7          	jalr	-1770(ra) # 80000d14 <acquire>
    if(p->state == UNUSED) {
    80002406:	4c9c                	lw	a5,24(s1)
    80002408:	cf81                	beqz	a5,80002420 <allocproc+0x40>
      release(&p->lock);
    8000240a:	8526                	mv	a0,s1
    8000240c:	fffff097          	auipc	ra,0xfffff
    80002410:	9bc080e7          	jalr	-1604(ra) # 80000dc8 <release>
  for(p = proc; p < &proc[NPROC]; p++) {
    80002414:	17048493          	addi	s1,s1,368
    80002418:	ff2492e3          	bne	s1,s2,800023fc <allocproc+0x1c>
  return 0;
    8000241c:	4481                	li	s1,0
    8000241e:	a889                	j	80002470 <allocproc+0x90>
  p->pid = allocpid();
    80002420:	00000097          	auipc	ra,0x0
    80002424:	e34080e7          	jalr	-460(ra) # 80002254 <allocpid>
    80002428:	dc88                	sw	a0,56(s1)
  if((p->trapframe = (struct trapframe *)kalloc()) == 0){
    8000242a:	ffffe097          	auipc	ra,0xffffe
    8000242e:	680080e7          	jalr	1664(ra) # 80000aaa <kalloc>
    80002432:	892a                	mv	s2,a0
    80002434:	eca8                	sd	a0,88(s1)
    80002436:	c521                	beqz	a0,8000247e <allocproc+0x9e>
  p->pagetable = proc_pagetable(p);
    80002438:	8526                	mv	a0,s1
    8000243a:	00000097          	auipc	ra,0x0
    8000243e:	e60080e7          	jalr	-416(ra) # 8000229a <proc_pagetable>
    80002442:	892a                	mv	s2,a0
    80002444:	e8a8                	sd	a0,80(s1)
  if(p->pagetable == 0){
    80002446:	c139                	beqz	a0,8000248c <allocproc+0xac>
  memset(&p->context, 0, sizeof(p->context));
    80002448:	07000613          	li	a2,112
    8000244c:	4581                	li	a1,0
    8000244e:	06048513          	addi	a0,s1,96
    80002452:	fffff097          	auipc	ra,0xfffff
    80002456:	9be080e7          	jalr	-1602(ra) # 80000e10 <memset>
  p->context.ra = (uint64)forkret;
    8000245a:	00000797          	auipc	a5,0x0
    8000245e:	db478793          	addi	a5,a5,-588 # 8000220e <forkret>
    80002462:	f0bc                	sd	a5,96(s1)
  p->context.sp = p->kstack + PGSIZE;
    80002464:	60bc                	ld	a5,64(s1)
    80002466:	6705                	lui	a4,0x1
    80002468:	97ba                	add	a5,a5,a4
    8000246a:	f4bc                	sd	a5,104(s1)
  p->vma = 0;
    8000246c:	1604b423          	sd	zero,360(s1)
}
    80002470:	8526                	mv	a0,s1
    80002472:	60e2                	ld	ra,24(sp)
    80002474:	6442                	ld	s0,16(sp)
    80002476:	64a2                	ld	s1,8(sp)
    80002478:	6902                	ld	s2,0(sp)
    8000247a:	6105                	addi	sp,sp,32
    8000247c:	8082                	ret
    release(&p->lock);
    8000247e:	8526                	mv	a0,s1
    80002480:	fffff097          	auipc	ra,0xfffff
    80002484:	948080e7          	jalr	-1720(ra) # 80000dc8 <release>
    return 0;
    80002488:	84ca                	mv	s1,s2
    8000248a:	b7dd                	j	80002470 <allocproc+0x90>
    freeproc(p);
    8000248c:	8526                	mv	a0,s1
    8000248e:	00000097          	auipc	ra,0x0
    80002492:	efa080e7          	jalr	-262(ra) # 80002388 <freeproc>
    release(&p->lock);
    80002496:	8526                	mv	a0,s1
    80002498:	fffff097          	auipc	ra,0xfffff
    8000249c:	930080e7          	jalr	-1744(ra) # 80000dc8 <release>
    return 0;
    800024a0:	84ca                	mv	s1,s2
    800024a2:	b7f9                	j	80002470 <allocproc+0x90>

00000000800024a4 <userinit>:
{
    800024a4:	1101                	addi	sp,sp,-32
    800024a6:	ec06                	sd	ra,24(sp)
    800024a8:	e822                	sd	s0,16(sp)
    800024aa:	e426                	sd	s1,8(sp)
    800024ac:	1000                	addi	s0,sp,32
  p = allocproc();
    800024ae:	00000097          	auipc	ra,0x0
    800024b2:	f32080e7          	jalr	-206(ra) # 800023e0 <allocproc>
    800024b6:	84aa                	mv	s1,a0
  initproc = p;
    800024b8:	00007797          	auipc	a5,0x7
    800024bc:	b6a7b823          	sd	a0,-1168(a5) # 80009028 <initproc>
  uvminit(p->pagetable, initcode, sizeof(initcode));
    800024c0:	03400613          	li	a2,52
    800024c4:	00006597          	auipc	a1,0x6
    800024c8:	36c58593          	addi	a1,a1,876 # 80008830 <initcode>
    800024cc:	6928                	ld	a0,80(a0)
    800024ce:	fffff097          	auipc	ra,0xfffff
    800024d2:	fae080e7          	jalr	-82(ra) # 8000147c <uvminit>
  p->sz = PGSIZE;
    800024d6:	6785                	lui	a5,0x1
    800024d8:	e4bc                	sd	a5,72(s1)
  p->trapframe->epc = 0;      // user program counter
    800024da:	6cb8                	ld	a4,88(s1)
    800024dc:	00073c23          	sd	zero,24(a4) # 1018 <_entry-0x7fffefe8>
  p->trapframe->sp = PGSIZE;  // user stack pointer
    800024e0:	6cb8                	ld	a4,88(s1)
    800024e2:	fb1c                	sd	a5,48(a4)
  safestrcpy(p->name, "initcode", sizeof(p->name));
    800024e4:	4641                	li	a2,16
    800024e6:	00006597          	auipc	a1,0x6
    800024ea:	d1a58593          	addi	a1,a1,-742 # 80008200 <digits+0x1c0>
    800024ee:	15848513          	addi	a0,s1,344
    800024f2:	fffff097          	auipc	ra,0xfffff
    800024f6:	a74080e7          	jalr	-1420(ra) # 80000f66 <safestrcpy>
  p->cwd = namei("/");
    800024fa:	00006517          	auipc	a0,0x6
    800024fe:	d1650513          	addi	a0,a0,-746 # 80008210 <digits+0x1d0>
    80002502:	00002097          	auipc	ra,0x2
    80002506:	272080e7          	jalr	626(ra) # 80004774 <namei>
    8000250a:	14a4b823          	sd	a0,336(s1)
  p->state = RUNNABLE;
    8000250e:	4789                	li	a5,2
    80002510:	cc9c                	sw	a5,24(s1)
  release(&p->lock);
    80002512:	8526                	mv	a0,s1
    80002514:	fffff097          	auipc	ra,0xfffff
    80002518:	8b4080e7          	jalr	-1868(ra) # 80000dc8 <release>
}
    8000251c:	60e2                	ld	ra,24(sp)
    8000251e:	6442                	ld	s0,16(sp)
    80002520:	64a2                	ld	s1,8(sp)
    80002522:	6105                	addi	sp,sp,32
    80002524:	8082                	ret

0000000080002526 <growproc>:
{
    80002526:	1101                	addi	sp,sp,-32
    80002528:	ec06                	sd	ra,24(sp)
    8000252a:	e822                	sd	s0,16(sp)
    8000252c:	e426                	sd	s1,8(sp)
    8000252e:	e04a                	sd	s2,0(sp)
    80002530:	1000                	addi	s0,sp,32
    80002532:	84aa                	mv	s1,a0
  struct proc *p = myproc();
    80002534:	00000097          	auipc	ra,0x0
    80002538:	ca2080e7          	jalr	-862(ra) # 800021d6 <myproc>
    8000253c:	892a                	mv	s2,a0
  sz = p->sz;
    8000253e:	652c                	ld	a1,72(a0)
    80002540:	0005861b          	sext.w	a2,a1
  if(n > 0){
    80002544:	00904f63          	bgtz	s1,80002562 <growproc+0x3c>
  } else if(n < 0){
    80002548:	0204cc63          	bltz	s1,80002580 <growproc+0x5a>
  p->sz = sz;
    8000254c:	1602                	slli	a2,a2,0x20
    8000254e:	9201                	srli	a2,a2,0x20
    80002550:	04c93423          	sd	a2,72(s2)
  return 0;
    80002554:	4501                	li	a0,0
}
    80002556:	60e2                	ld	ra,24(sp)
    80002558:	6442                	ld	s0,16(sp)
    8000255a:	64a2                	ld	s1,8(sp)
    8000255c:	6902                	ld	s2,0(sp)
    8000255e:	6105                	addi	sp,sp,32
    80002560:	8082                	ret
    if((sz = uvmalloc(p->pagetable, sz, sz + n)) == 0) {
    80002562:	9e25                	addw	a2,a2,s1
    80002564:	1602                	slli	a2,a2,0x20
    80002566:	9201                	srli	a2,a2,0x20
    80002568:	1582                	slli	a1,a1,0x20
    8000256a:	9181                	srli	a1,a1,0x20
    8000256c:	6928                	ld	a0,80(a0)
    8000256e:	fffff097          	auipc	ra,0xfffff
    80002572:	fc8080e7          	jalr	-56(ra) # 80001536 <uvmalloc>
    80002576:	0005061b          	sext.w	a2,a0
    8000257a:	fa69                	bnez	a2,8000254c <growproc+0x26>
      return -1;
    8000257c:	557d                	li	a0,-1
    8000257e:	bfe1                	j	80002556 <growproc+0x30>
    sz = uvmdealloc(p->pagetable, sz, sz + n);
    80002580:	9e25                	addw	a2,a2,s1
    80002582:	1602                	slli	a2,a2,0x20
    80002584:	9201                	srli	a2,a2,0x20
    80002586:	1582                	slli	a1,a1,0x20
    80002588:	9181                	srli	a1,a1,0x20
    8000258a:	6928                	ld	a0,80(a0)
    8000258c:	fffff097          	auipc	ra,0xfffff
    80002590:	f62080e7          	jalr	-158(ra) # 800014ee <uvmdealloc>
    80002594:	0005061b          	sext.w	a2,a0
    80002598:	bf55                	j	8000254c <growproc+0x26>

000000008000259a <fork>:
{
    8000259a:	7139                	addi	sp,sp,-64
    8000259c:	fc06                	sd	ra,56(sp)
    8000259e:	f822                	sd	s0,48(sp)
    800025a0:	f426                	sd	s1,40(sp)
    800025a2:	f04a                	sd	s2,32(sp)
    800025a4:	ec4e                	sd	s3,24(sp)
    800025a6:	e852                	sd	s4,16(sp)
    800025a8:	e456                	sd	s5,8(sp)
    800025aa:	0080                	addi	s0,sp,64
  struct proc *p = myproc();
    800025ac:	00000097          	auipc	ra,0x0
    800025b0:	c2a080e7          	jalr	-982(ra) # 800021d6 <myproc>
    800025b4:	89aa                	mv	s3,a0
  if((np = allocproc()) == 0){
    800025b6:	00000097          	auipc	ra,0x0
    800025ba:	e2a080e7          	jalr	-470(ra) # 800023e0 <allocproc>
    800025be:	1c050363          	beqz	a0,80002784 <fork+0x1ea>
    800025c2:	8a2a                	mv	s4,a0
  if(uvmcopy(p->pagetable, np->pagetable, 0, p->sz) < 0){
    800025c4:	0489b683          	ld	a3,72(s3)
    800025c8:	4601                	li	a2,0
    800025ca:	692c                	ld	a1,80(a0)
    800025cc:	0509b503          	ld	a0,80(s3)
    800025d0:	fffff097          	auipc	ra,0xfffff
    800025d4:	0b2080e7          	jalr	178(ra) # 80001682 <uvmcopy>
    800025d8:	0a054a63          	bltz	a0,8000268c <fork+0xf2>
  np->sz = p->sz;
    800025dc:	0489b783          	ld	a5,72(s3)
    800025e0:	04fa3423          	sd	a5,72(s4)
  struct vma *vma = p->vma, *nvma;
    800025e4:	1689b903          	ld	s2,360(s3)
  if (vma == 0)
    800025e8:	0a090e63          	beqz	s2,800026a4 <fork+0x10a>
    nvma = kvma_alloc();
    800025ec:	ffffe097          	auipc	ra,0xffffe
    800025f0:	64e080e7          	jalr	1614(ra) # 80000c3a <kvma_alloc>
    800025f4:	84aa                	mv	s1,a0
    memmove(nvma, vma, sizeof(struct vma));
    800025f6:	04000613          	li	a2,64
    800025fa:	85ca                	mv	a1,s2
    800025fc:	fffff097          	auipc	ra,0xfffff
    80002600:	874080e7          	jalr	-1932(ra) # 80000e70 <memmove>
    nvma->next = 0;
    80002604:	0204bc23          	sd	zero,56(s1)
    np->vma = nvma;
    80002608:	169a3423          	sd	s1,360(s4)
    filedup(nvma->file);
    8000260c:	6c88                	ld	a0,24(s1)
    8000260e:	00003097          	auipc	ra,0x3
    80002612:	804080e7          	jalr	-2044(ra) # 80004e12 <filedup>
    if(uvmcopy(p->pagetable, np->pagetable, vma->start, vma->length) < 0)
    80002616:	02093683          	ld	a3,32(s2)
    8000261a:	00093603          	ld	a2,0(s2)
    8000261e:	050a3583          	ld	a1,80(s4)
    80002622:	0509b503          	ld	a0,80(s3)
    80002626:	fffff097          	auipc	ra,0xfffff
    8000262a:	05c080e7          	jalr	92(ra) # 80001682 <uvmcopy>
    8000262e:	0a054f63          	bltz	a0,800026ec <fork+0x152>
    for (vma = vma->next; vma != 0; vma = vma->next)
    80002632:	03893903          	ld	s2,56(s2)
    80002636:	06090963          	beqz	s2,800026a8 <fork+0x10e>
      nvma->next = kvma_alloc();
    8000263a:	8aa6                	mv	s5,s1
    8000263c:	ffffe097          	auipc	ra,0xffffe
    80002640:	5fe080e7          	jalr	1534(ra) # 80000c3a <kvma_alloc>
    80002644:	84aa                	mv	s1,a0
    80002646:	02aabc23          	sd	a0,56(s5)
      memmove(nvma, vma, sizeof(struct vma));
    8000264a:	04000613          	li	a2,64
    8000264e:	85ca                	mv	a1,s2
    80002650:	fffff097          	auipc	ra,0xfffff
    80002654:	820080e7          	jalr	-2016(ra) # 80000e70 <memmove>
      nvma->next = 0;
    80002658:	0204bc23          	sd	zero,56(s1)
      filedup(nvma->file);
    8000265c:	6c88                	ld	a0,24(s1)
    8000265e:	00002097          	auipc	ra,0x2
    80002662:	7b4080e7          	jalr	1972(ra) # 80004e12 <filedup>
      if(uvmcopy(p->pagetable, np->pagetable, vma->start, vma->length) < 0)
    80002666:	02093683          	ld	a3,32(s2)
    8000266a:	00093603          	ld	a2,0(s2)
    8000266e:	050a3583          	ld	a1,80(s4)
    80002672:	0509b503          	ld	a0,80(s3)
    80002676:	fffff097          	auipc	ra,0xfffff
    8000267a:	00c080e7          	jalr	12(ra) # 80001682 <uvmcopy>
    8000267e:	08054363          	bltz	a0,80002704 <fork+0x16a>
    for (vma = vma->next; vma != 0; vma = vma->next)
    80002682:	03893903          	ld	s2,56(s2)
    80002686:	fa091ae3          	bnez	s2,8000263a <fork+0xa0>
    8000268a:	a839                	j	800026a8 <fork+0x10e>
    freeproc(np);
    8000268c:	8552                	mv	a0,s4
    8000268e:	00000097          	auipc	ra,0x0
    80002692:	cfa080e7          	jalr	-774(ra) # 80002388 <freeproc>
    release(&np->lock);
    80002696:	8552                	mv	a0,s4
    80002698:	ffffe097          	auipc	ra,0xffffe
    8000269c:	730080e7          	jalr	1840(ra) # 80000dc8 <release>
    return -1;
    800026a0:	54fd                	li	s1,-1
    800026a2:	a0f9                	j	80002770 <fork+0x1d6>
    np->vma = 0;
    800026a4:	160a3423          	sd	zero,360(s4)
  np->parent = p;
    800026a8:	033a3023          	sd	s3,32(s4)
  *(np->trapframe) = *(p->trapframe);
    800026ac:	0589b683          	ld	a3,88(s3)
    800026b0:	87b6                	mv	a5,a3
    800026b2:	058a3703          	ld	a4,88(s4)
    800026b6:	12068693          	addi	a3,a3,288
    800026ba:	0007b803          	ld	a6,0(a5) # 1000 <_entry-0x7ffff000>
    800026be:	6788                	ld	a0,8(a5)
    800026c0:	6b8c                	ld	a1,16(a5)
    800026c2:	6f90                	ld	a2,24(a5)
    800026c4:	01073023          	sd	a6,0(a4)
    800026c8:	e708                	sd	a0,8(a4)
    800026ca:	eb0c                	sd	a1,16(a4)
    800026cc:	ef10                	sd	a2,24(a4)
    800026ce:	02078793          	addi	a5,a5,32
    800026d2:	02070713          	addi	a4,a4,32
    800026d6:	fed792e3          	bne	a5,a3,800026ba <fork+0x120>
  np->trapframe->a0 = 0;
    800026da:	058a3783          	ld	a5,88(s4)
    800026de:	0607b823          	sd	zero,112(a5)
    800026e2:	0d000493          	li	s1,208
  for(i = 0; i < NOFILE; i++)
    800026e6:	15000913          	li	s2,336
    800026ea:	a099                	j	80002730 <fork+0x196>
      freeproc(np);
    800026ec:	8552                	mv	a0,s4
    800026ee:	00000097          	auipc	ra,0x0
    800026f2:	c9a080e7          	jalr	-870(ra) # 80002388 <freeproc>
      release(&np->lock);
    800026f6:	8552                	mv	a0,s4
    800026f8:	ffffe097          	auipc	ra,0xffffe
    800026fc:	6d0080e7          	jalr	1744(ra) # 80000dc8 <release>
      return -1;
    80002700:	54fd                	li	s1,-1
    80002702:	a0bd                	j	80002770 <fork+0x1d6>
        freeproc(np);
    80002704:	8552                	mv	a0,s4
    80002706:	00000097          	auipc	ra,0x0
    8000270a:	c82080e7          	jalr	-894(ra) # 80002388 <freeproc>
        release(&np->lock);
    8000270e:	8552                	mv	a0,s4
    80002710:	ffffe097          	auipc	ra,0xffffe
    80002714:	6b8080e7          	jalr	1720(ra) # 80000dc8 <release>
        return -1;
    80002718:	54fd                	li	s1,-1
    8000271a:	a899                	j	80002770 <fork+0x1d6>
      np->ofile[i] = filedup(p->ofile[i]);
    8000271c:	00002097          	auipc	ra,0x2
    80002720:	6f6080e7          	jalr	1782(ra) # 80004e12 <filedup>
    80002724:	009a07b3          	add	a5,s4,s1
    80002728:	e388                	sd	a0,0(a5)
  for(i = 0; i < NOFILE; i++)
    8000272a:	04a1                	addi	s1,s1,8
    8000272c:	01248763          	beq	s1,s2,8000273a <fork+0x1a0>
    if(p->ofile[i])
    80002730:	009987b3          	add	a5,s3,s1
    80002734:	6388                	ld	a0,0(a5)
    80002736:	f17d                	bnez	a0,8000271c <fork+0x182>
    80002738:	bfcd                	j	8000272a <fork+0x190>
  np->cwd = idup(p->cwd);
    8000273a:	1509b503          	ld	a0,336(s3)
    8000273e:	00002097          	auipc	ra,0x2
    80002742:	842080e7          	jalr	-1982(ra) # 80003f80 <idup>
    80002746:	14aa3823          	sd	a0,336(s4)
  safestrcpy(np->name, p->name, sizeof(p->name));
    8000274a:	4641                	li	a2,16
    8000274c:	15898593          	addi	a1,s3,344
    80002750:	158a0513          	addi	a0,s4,344
    80002754:	fffff097          	auipc	ra,0xfffff
    80002758:	812080e7          	jalr	-2030(ra) # 80000f66 <safestrcpy>
  pid = np->pid;
    8000275c:	038a2483          	lw	s1,56(s4)
  np->state = RUNNABLE;
    80002760:	4789                	li	a5,2
    80002762:	00fa2c23          	sw	a5,24(s4)
  release(&np->lock);
    80002766:	8552                	mv	a0,s4
    80002768:	ffffe097          	auipc	ra,0xffffe
    8000276c:	660080e7          	jalr	1632(ra) # 80000dc8 <release>
}
    80002770:	8526                	mv	a0,s1
    80002772:	70e2                	ld	ra,56(sp)
    80002774:	7442                	ld	s0,48(sp)
    80002776:	74a2                	ld	s1,40(sp)
    80002778:	7902                	ld	s2,32(sp)
    8000277a:	69e2                	ld	s3,24(sp)
    8000277c:	6a42                	ld	s4,16(sp)
    8000277e:	6aa2                	ld	s5,8(sp)
    80002780:	6121                	addi	sp,sp,64
    80002782:	8082                	ret
    return -1;
    80002784:	54fd                	li	s1,-1
    80002786:	b7ed                	j	80002770 <fork+0x1d6>

0000000080002788 <reparent>:
{
    80002788:	7179                	addi	sp,sp,-48
    8000278a:	f406                	sd	ra,40(sp)
    8000278c:	f022                	sd	s0,32(sp)
    8000278e:	ec26                	sd	s1,24(sp)
    80002790:	e84a                	sd	s2,16(sp)
    80002792:	e44e                	sd	s3,8(sp)
    80002794:	e052                	sd	s4,0(sp)
    80002796:	1800                	addi	s0,sp,48
    80002798:	892a                	mv	s2,a0
  for(pp = proc; pp < &proc[NPROC]; pp++){
    8000279a:	0000f497          	auipc	s1,0xf
    8000279e:	f3e48493          	addi	s1,s1,-194 # 800116d8 <proc>
      pp->parent = initproc;
    800027a2:	00007a17          	auipc	s4,0x7
    800027a6:	886a0a13          	addi	s4,s4,-1914 # 80009028 <initproc>
  for(pp = proc; pp < &proc[NPROC]; pp++){
    800027aa:	00015997          	auipc	s3,0x15
    800027ae:	b2e98993          	addi	s3,s3,-1234 # 800172d8 <tickslock>
    800027b2:	a029                	j	800027bc <reparent+0x34>
    800027b4:	17048493          	addi	s1,s1,368
    800027b8:	03348363          	beq	s1,s3,800027de <reparent+0x56>
    if(pp->parent == p){
    800027bc:	709c                	ld	a5,32(s1)
    800027be:	ff279be3          	bne	a5,s2,800027b4 <reparent+0x2c>
      acquire(&pp->lock);
    800027c2:	8526                	mv	a0,s1
    800027c4:	ffffe097          	auipc	ra,0xffffe
    800027c8:	550080e7          	jalr	1360(ra) # 80000d14 <acquire>
      pp->parent = initproc;
    800027cc:	000a3783          	ld	a5,0(s4)
    800027d0:	f09c                	sd	a5,32(s1)
      release(&pp->lock);
    800027d2:	8526                	mv	a0,s1
    800027d4:	ffffe097          	auipc	ra,0xffffe
    800027d8:	5f4080e7          	jalr	1524(ra) # 80000dc8 <release>
    800027dc:	bfe1                	j	800027b4 <reparent+0x2c>
}
    800027de:	70a2                	ld	ra,40(sp)
    800027e0:	7402                	ld	s0,32(sp)
    800027e2:	64e2                	ld	s1,24(sp)
    800027e4:	6942                	ld	s2,16(sp)
    800027e6:	69a2                	ld	s3,8(sp)
    800027e8:	6a02                	ld	s4,0(sp)
    800027ea:	6145                	addi	sp,sp,48
    800027ec:	8082                	ret

00000000800027ee <scheduler>:
{
    800027ee:	711d                	addi	sp,sp,-96
    800027f0:	ec86                	sd	ra,88(sp)
    800027f2:	e8a2                	sd	s0,80(sp)
    800027f4:	e4a6                	sd	s1,72(sp)
    800027f6:	e0ca                	sd	s2,64(sp)
    800027f8:	fc4e                	sd	s3,56(sp)
    800027fa:	f852                	sd	s4,48(sp)
    800027fc:	f456                	sd	s5,40(sp)
    800027fe:	f05a                	sd	s6,32(sp)
    80002800:	ec5e                	sd	s7,24(sp)
    80002802:	e862                	sd	s8,16(sp)
    80002804:	e466                	sd	s9,8(sp)
    80002806:	1080                	addi	s0,sp,96
    80002808:	8792                	mv	a5,tp
  int id = r_tp();
    8000280a:	2781                	sext.w	a5,a5
  c->proc = 0;
    8000280c:	00779c13          	slli	s8,a5,0x7
    80002810:	0000f717          	auipc	a4,0xf
    80002814:	ab070713          	addi	a4,a4,-1360 # 800112c0 <pid_lock>
    80002818:	9762                	add	a4,a4,s8
    8000281a:	00073c23          	sd	zero,24(a4)
        swtch(&c->context, &p->context);
    8000281e:	0000f717          	auipc	a4,0xf
    80002822:	ac270713          	addi	a4,a4,-1342 # 800112e0 <cpus+0x8>
    80002826:	9c3a                	add	s8,s8,a4
      if(p->state == RUNNABLE) {
    80002828:	4a89                	li	s5,2
        c->proc = p;
    8000282a:	079e                	slli	a5,a5,0x7
    8000282c:	0000fb17          	auipc	s6,0xf
    80002830:	a94b0b13          	addi	s6,s6,-1388 # 800112c0 <pid_lock>
    80002834:	9b3e                	add	s6,s6,a5
    for(p = proc; p < &proc[NPROC]; p++) {
    80002836:	00015a17          	auipc	s4,0x15
    8000283a:	aa2a0a13          	addi	s4,s4,-1374 # 800172d8 <tickslock>
    int nproc = 0;
    8000283e:	4c81                	li	s9,0
    80002840:	a8a1                	j	80002898 <scheduler+0xaa>
        p->state = RUNNING;
    80002842:	0174ac23          	sw	s7,24(s1)
        c->proc = p;
    80002846:	009b3c23          	sd	s1,24(s6)
        swtch(&c->context, &p->context);
    8000284a:	06048593          	addi	a1,s1,96
    8000284e:	8562                	mv	a0,s8
    80002850:	00000097          	auipc	ra,0x0
    80002854:	6a4080e7          	jalr	1700(ra) # 80002ef4 <swtch>
        c->proc = 0;
    80002858:	000b3c23          	sd	zero,24(s6)
      release(&p->lock);
    8000285c:	8526                	mv	a0,s1
    8000285e:	ffffe097          	auipc	ra,0xffffe
    80002862:	56a080e7          	jalr	1386(ra) # 80000dc8 <release>
    for(p = proc; p < &proc[NPROC]; p++) {
    80002866:	17048493          	addi	s1,s1,368
    8000286a:	01448d63          	beq	s1,s4,80002884 <scheduler+0x96>
      acquire(&p->lock);
    8000286e:	8526                	mv	a0,s1
    80002870:	ffffe097          	auipc	ra,0xffffe
    80002874:	4a4080e7          	jalr	1188(ra) # 80000d14 <acquire>
      if(p->state != UNUSED) {
    80002878:	4c9c                	lw	a5,24(s1)
    8000287a:	d3ed                	beqz	a5,8000285c <scheduler+0x6e>
        nproc++;
    8000287c:	2985                	addiw	s3,s3,1
      if(p->state == RUNNABLE) {
    8000287e:	fd579fe3          	bne	a5,s5,8000285c <scheduler+0x6e>
    80002882:	b7c1                	j	80002842 <scheduler+0x54>
    if(nproc <= 2) {   // only init and sh exist
    80002884:	013aca63          	blt	s5,s3,80002898 <scheduler+0xaa>
  asm volatile("csrr %0, sstatus" : "=r" (x) );
    80002888:	100027f3          	csrr	a5,sstatus
  w_sstatus(r_sstatus() | SSTATUS_SIE);
    8000288c:	0027e793          	ori	a5,a5,2
  asm volatile("csrw sstatus, %0" : : "r" (x));
    80002890:	10079073          	csrw	sstatus,a5
      asm volatile("wfi");
    80002894:	10500073          	wfi
  asm volatile("csrr %0, sstatus" : "=r" (x) );
    80002898:	100027f3          	csrr	a5,sstatus
  w_sstatus(r_sstatus() | SSTATUS_SIE);
    8000289c:	0027e793          	ori	a5,a5,2
  asm volatile("csrw sstatus, %0" : : "r" (x));
    800028a0:	10079073          	csrw	sstatus,a5
    int nproc = 0;
    800028a4:	89e6                	mv	s3,s9
    for(p = proc; p < &proc[NPROC]; p++) {
    800028a6:	0000f497          	auipc	s1,0xf
    800028aa:	e3248493          	addi	s1,s1,-462 # 800116d8 <proc>
        p->state = RUNNING;
    800028ae:	4b8d                	li	s7,3
    800028b0:	bf7d                	j	8000286e <scheduler+0x80>

00000000800028b2 <sched>:
{
    800028b2:	7179                	addi	sp,sp,-48
    800028b4:	f406                	sd	ra,40(sp)
    800028b6:	f022                	sd	s0,32(sp)
    800028b8:	ec26                	sd	s1,24(sp)
    800028ba:	e84a                	sd	s2,16(sp)
    800028bc:	e44e                	sd	s3,8(sp)
    800028be:	1800                	addi	s0,sp,48
  struct proc *p = myproc();
    800028c0:	00000097          	auipc	ra,0x0
    800028c4:	916080e7          	jalr	-1770(ra) # 800021d6 <myproc>
    800028c8:	84aa                	mv	s1,a0
  if(!holding(&p->lock))
    800028ca:	ffffe097          	auipc	ra,0xffffe
    800028ce:	3d0080e7          	jalr	976(ra) # 80000c9a <holding>
    800028d2:	c93d                	beqz	a0,80002948 <sched+0x96>
  asm volatile("mv %0, tp" : "=r" (x) );
    800028d4:	8792                	mv	a5,tp
  if(mycpu()->noff != 1)
    800028d6:	2781                	sext.w	a5,a5
    800028d8:	079e                	slli	a5,a5,0x7
    800028da:	0000f717          	auipc	a4,0xf
    800028de:	9e670713          	addi	a4,a4,-1562 # 800112c0 <pid_lock>
    800028e2:	97ba                	add	a5,a5,a4
    800028e4:	0907a703          	lw	a4,144(a5)
    800028e8:	4785                	li	a5,1
    800028ea:	06f71763          	bne	a4,a5,80002958 <sched+0xa6>
  if(p->state == RUNNING)
    800028ee:	4c98                	lw	a4,24(s1)
    800028f0:	478d                	li	a5,3
    800028f2:	06f70b63          	beq	a4,a5,80002968 <sched+0xb6>
  asm volatile("csrr %0, sstatus" : "=r" (x) );
    800028f6:	100027f3          	csrr	a5,sstatus
  return (x & SSTATUS_SIE) != 0;
    800028fa:	8b89                	andi	a5,a5,2
  if(intr_get())
    800028fc:	efb5                	bnez	a5,80002978 <sched+0xc6>
  asm volatile("mv %0, tp" : "=r" (x) );
    800028fe:	8792                	mv	a5,tp
  intena = mycpu()->intena;
    80002900:	0000f917          	auipc	s2,0xf
    80002904:	9c090913          	addi	s2,s2,-1600 # 800112c0 <pid_lock>
    80002908:	2781                	sext.w	a5,a5
    8000290a:	079e                	slli	a5,a5,0x7
    8000290c:	97ca                	add	a5,a5,s2
    8000290e:	0947a983          	lw	s3,148(a5)
    80002912:	8792                	mv	a5,tp
  swtch(&p->context, &mycpu()->context);
    80002914:	2781                	sext.w	a5,a5
    80002916:	079e                	slli	a5,a5,0x7
    80002918:	0000f597          	auipc	a1,0xf
    8000291c:	9c858593          	addi	a1,a1,-1592 # 800112e0 <cpus+0x8>
    80002920:	95be                	add	a1,a1,a5
    80002922:	06048513          	addi	a0,s1,96
    80002926:	00000097          	auipc	ra,0x0
    8000292a:	5ce080e7          	jalr	1486(ra) # 80002ef4 <swtch>
    8000292e:	8792                	mv	a5,tp
  mycpu()->intena = intena;
    80002930:	2781                	sext.w	a5,a5
    80002932:	079e                	slli	a5,a5,0x7
    80002934:	97ca                	add	a5,a5,s2
    80002936:	0937aa23          	sw	s3,148(a5)
}
    8000293a:	70a2                	ld	ra,40(sp)
    8000293c:	7402                	ld	s0,32(sp)
    8000293e:	64e2                	ld	s1,24(sp)
    80002940:	6942                	ld	s2,16(sp)
    80002942:	69a2                	ld	s3,8(sp)
    80002944:	6145                	addi	sp,sp,48
    80002946:	8082                	ret
    panic("sched p->lock");
    80002948:	00006517          	auipc	a0,0x6
    8000294c:	8d050513          	addi	a0,a0,-1840 # 80008218 <digits+0x1d8>
    80002950:	ffffe097          	auipc	ra,0xffffe
    80002954:	be0080e7          	jalr	-1056(ra) # 80000530 <panic>
    panic("sched locks");
    80002958:	00006517          	auipc	a0,0x6
    8000295c:	8d050513          	addi	a0,a0,-1840 # 80008228 <digits+0x1e8>
    80002960:	ffffe097          	auipc	ra,0xffffe
    80002964:	bd0080e7          	jalr	-1072(ra) # 80000530 <panic>
    panic("sched running");
    80002968:	00006517          	auipc	a0,0x6
    8000296c:	8d050513          	addi	a0,a0,-1840 # 80008238 <digits+0x1f8>
    80002970:	ffffe097          	auipc	ra,0xffffe
    80002974:	bc0080e7          	jalr	-1088(ra) # 80000530 <panic>
    panic("sched interruptible");
    80002978:	00006517          	auipc	a0,0x6
    8000297c:	8d050513          	addi	a0,a0,-1840 # 80008248 <digits+0x208>
    80002980:	ffffe097          	auipc	ra,0xffffe
    80002984:	bb0080e7          	jalr	-1104(ra) # 80000530 <panic>

0000000080002988 <exit>:
{
    80002988:	7139                	addi	sp,sp,-64
    8000298a:	fc06                	sd	ra,56(sp)
    8000298c:	f822                	sd	s0,48(sp)
    8000298e:	f426                	sd	s1,40(sp)
    80002990:	f04a                	sd	s2,32(sp)
    80002992:	ec4e                	sd	s3,24(sp)
    80002994:	e852                	sd	s4,16(sp)
    80002996:	e456                	sd	s5,8(sp)
    80002998:	0080                	addi	s0,sp,64
    8000299a:	8a2a                	mv	s4,a0
  struct proc *p = myproc();
    8000299c:	00000097          	auipc	ra,0x0
    800029a0:	83a080e7          	jalr	-1990(ra) # 800021d6 <myproc>
  if(p == initproc)
    800029a4:	00006797          	auipc	a5,0x6
    800029a8:	6847b783          	ld	a5,1668(a5) # 80009028 <initproc>
    800029ac:	00a78c63          	beq	a5,a0,800029c4 <exit+0x3c>
    800029b0:	89aa                	mv	s3,a0
  struct vma *vma = myproc()->vma, *next;
    800029b2:	00000097          	auipc	ra,0x0
    800029b6:	824080e7          	jalr	-2012(ra) # 800021d6 <myproc>
    800029ba:	16853483          	ld	s1,360(a0)
  while (vma != 0)
    800029be:	c4ad                	beqz	s1,80002a28 <exit+0xa0>
    if ((vma->prot & PROT_WRITE) && vma->flags == MAP_SHARED)
    800029c0:	4a85                	li	s5,1
    800029c2:	a0a9                	j	80002a0c <exit+0x84>
    panic("init exiting");
    800029c4:	00006517          	auipc	a0,0x6
    800029c8:	89c50513          	addi	a0,a0,-1892 # 80008260 <digits+0x220>
    800029cc:	ffffe097          	auipc	ra,0xffffe
    800029d0:	b64080e7          	jalr	-1180(ra) # 80000530 <panic>
    uvmunmap(myproc()->pagetable, vma->start, vma->length / PGSIZE, 1);
    800029d4:	00000097          	auipc	ra,0x0
    800029d8:	802080e7          	jalr	-2046(ra) # 800021d6 <myproc>
    800029dc:	7090                	ld	a2,32(s1)
    800029de:	86d6                	mv	a3,s5
    800029e0:	8231                	srli	a2,a2,0xc
    800029e2:	608c                	ld	a1,0(s1)
    800029e4:	6928                	ld	a0,80(a0)
    800029e6:	fffff097          	auipc	ra,0xfffff
    800029ea:	9b2080e7          	jalr	-1614(ra) # 80001398 <uvmunmap>
    fileclose(vma->file);
    800029ee:	6c88                	ld	a0,24(s1)
    800029f0:	00002097          	auipc	ra,0x2
    800029f4:	474080e7          	jalr	1140(ra) # 80004e64 <fileclose>
    next = vma->next;
    800029f8:	0384b903          	ld	s2,56(s1)
    kvma_free(vma);
    800029fc:	8526                	mv	a0,s1
    800029fe:	ffffe097          	auipc	ra,0xffffe
    80002a02:	10c080e7          	jalr	268(ra) # 80000b0a <kvma_free>
  while (vma != 0)
    80002a06:	02090163          	beqz	s2,80002a28 <exit+0xa0>
    vma = next;
    80002a0a:	84ca                	mv	s1,s2
    if ((vma->prot & PROT_WRITE) && vma->flags == MAP_SHARED)
    80002a0c:	489c                	lw	a5,16(s1)
    80002a0e:	8b89                	andi	a5,a5,2
    80002a10:	d3f1                	beqz	a5,800029d4 <exit+0x4c>
    80002a12:	589c                	lw	a5,48(s1)
    80002a14:	fd5790e3          	bne	a5,s5,800029d4 <exit+0x4c>
      writeback(vma, vma->start, vma->length);
    80002a18:	7090                	ld	a2,32(s1)
    80002a1a:	608c                	ld	a1,0(s1)
    80002a1c:	8526                	mv	a0,s1
    80002a1e:	fffff097          	auipc	ra,0xfffff
    80002a22:	394080e7          	jalr	916(ra) # 80001db2 <writeback>
    80002a26:	b77d                	j	800029d4 <exit+0x4c>
  for(int fd = 0; fd < NOFILE; fd++){
    80002a28:	0d098493          	addi	s1,s3,208
    80002a2c:	15098913          	addi	s2,s3,336
    80002a30:	a811                	j	80002a44 <exit+0xbc>
      fileclose(f);
    80002a32:	00002097          	auipc	ra,0x2
    80002a36:	432080e7          	jalr	1074(ra) # 80004e64 <fileclose>
      p->ofile[fd] = 0;
    80002a3a:	0004b023          	sd	zero,0(s1)
  for(int fd = 0; fd < NOFILE; fd++){
    80002a3e:	04a1                	addi	s1,s1,8
    80002a40:	01248563          	beq	s1,s2,80002a4a <exit+0xc2>
    if(p->ofile[fd]){
    80002a44:	6088                	ld	a0,0(s1)
    80002a46:	f575                	bnez	a0,80002a32 <exit+0xaa>
    80002a48:	bfdd                	j	80002a3e <exit+0xb6>
  begin_op();
    80002a4a:	00002097          	auipc	ra,0x2
    80002a4e:	f46080e7          	jalr	-186(ra) # 80004990 <begin_op>
  iput(p->cwd);
    80002a52:	1509b503          	ld	a0,336(s3)
    80002a56:	00001097          	auipc	ra,0x1
    80002a5a:	722080e7          	jalr	1826(ra) # 80004178 <iput>
  end_op();
    80002a5e:	00002097          	auipc	ra,0x2
    80002a62:	fb2080e7          	jalr	-78(ra) # 80004a10 <end_op>
  p->cwd = 0;
    80002a66:	1409b823          	sd	zero,336(s3)
  acquire(&initproc->lock);
    80002a6a:	00006497          	auipc	s1,0x6
    80002a6e:	5be48493          	addi	s1,s1,1470 # 80009028 <initproc>
    80002a72:	6088                	ld	a0,0(s1)
    80002a74:	ffffe097          	auipc	ra,0xffffe
    80002a78:	2a0080e7          	jalr	672(ra) # 80000d14 <acquire>
  wakeup1(initproc);
    80002a7c:	6088                	ld	a0,0(s1)
    80002a7e:	fffff097          	auipc	ra,0xfffff
    80002a82:	5ba080e7          	jalr	1466(ra) # 80002038 <wakeup1>
  release(&initproc->lock);
    80002a86:	6088                	ld	a0,0(s1)
    80002a88:	ffffe097          	auipc	ra,0xffffe
    80002a8c:	340080e7          	jalr	832(ra) # 80000dc8 <release>
  acquire(&p->lock);
    80002a90:	854e                	mv	a0,s3
    80002a92:	ffffe097          	auipc	ra,0xffffe
    80002a96:	282080e7          	jalr	642(ra) # 80000d14 <acquire>
  struct proc *original_parent = p->parent;
    80002a9a:	0209b483          	ld	s1,32(s3)
  release(&p->lock);
    80002a9e:	854e                	mv	a0,s3
    80002aa0:	ffffe097          	auipc	ra,0xffffe
    80002aa4:	328080e7          	jalr	808(ra) # 80000dc8 <release>
  acquire(&original_parent->lock);
    80002aa8:	8526                	mv	a0,s1
    80002aaa:	ffffe097          	auipc	ra,0xffffe
    80002aae:	26a080e7          	jalr	618(ra) # 80000d14 <acquire>
  acquire(&p->lock);
    80002ab2:	854e                	mv	a0,s3
    80002ab4:	ffffe097          	auipc	ra,0xffffe
    80002ab8:	260080e7          	jalr	608(ra) # 80000d14 <acquire>
  reparent(p);
    80002abc:	854e                	mv	a0,s3
    80002abe:	00000097          	auipc	ra,0x0
    80002ac2:	cca080e7          	jalr	-822(ra) # 80002788 <reparent>
  wakeup1(original_parent);
    80002ac6:	8526                	mv	a0,s1
    80002ac8:	fffff097          	auipc	ra,0xfffff
    80002acc:	570080e7          	jalr	1392(ra) # 80002038 <wakeup1>
  p->xstate = status;
    80002ad0:	0349aa23          	sw	s4,52(s3)
  p->state = ZOMBIE;
    80002ad4:	4791                	li	a5,4
    80002ad6:	00f9ac23          	sw	a5,24(s3)
  release(&original_parent->lock);
    80002ada:	8526                	mv	a0,s1
    80002adc:	ffffe097          	auipc	ra,0xffffe
    80002ae0:	2ec080e7          	jalr	748(ra) # 80000dc8 <release>
  sched();
    80002ae4:	00000097          	auipc	ra,0x0
    80002ae8:	dce080e7          	jalr	-562(ra) # 800028b2 <sched>
  panic("zombie exit");
    80002aec:	00005517          	auipc	a0,0x5
    80002af0:	78450513          	addi	a0,a0,1924 # 80008270 <digits+0x230>
    80002af4:	ffffe097          	auipc	ra,0xffffe
    80002af8:	a3c080e7          	jalr	-1476(ra) # 80000530 <panic>

0000000080002afc <yield>:
{
    80002afc:	1101                	addi	sp,sp,-32
    80002afe:	ec06                	sd	ra,24(sp)
    80002b00:	e822                	sd	s0,16(sp)
    80002b02:	e426                	sd	s1,8(sp)
    80002b04:	1000                	addi	s0,sp,32
  struct proc *p = myproc();
    80002b06:	fffff097          	auipc	ra,0xfffff
    80002b0a:	6d0080e7          	jalr	1744(ra) # 800021d6 <myproc>
    80002b0e:	84aa                	mv	s1,a0
  acquire(&p->lock);
    80002b10:	ffffe097          	auipc	ra,0xffffe
    80002b14:	204080e7          	jalr	516(ra) # 80000d14 <acquire>
  p->state = RUNNABLE;
    80002b18:	4789                	li	a5,2
    80002b1a:	cc9c                	sw	a5,24(s1)
  sched();
    80002b1c:	00000097          	auipc	ra,0x0
    80002b20:	d96080e7          	jalr	-618(ra) # 800028b2 <sched>
  release(&p->lock);
    80002b24:	8526                	mv	a0,s1
    80002b26:	ffffe097          	auipc	ra,0xffffe
    80002b2a:	2a2080e7          	jalr	674(ra) # 80000dc8 <release>
}
    80002b2e:	60e2                	ld	ra,24(sp)
    80002b30:	6442                	ld	s0,16(sp)
    80002b32:	64a2                	ld	s1,8(sp)
    80002b34:	6105                	addi	sp,sp,32
    80002b36:	8082                	ret

0000000080002b38 <sleep>:
{
    80002b38:	7179                	addi	sp,sp,-48
    80002b3a:	f406                	sd	ra,40(sp)
    80002b3c:	f022                	sd	s0,32(sp)
    80002b3e:	ec26                	sd	s1,24(sp)
    80002b40:	e84a                	sd	s2,16(sp)
    80002b42:	e44e                	sd	s3,8(sp)
    80002b44:	1800                	addi	s0,sp,48
    80002b46:	89aa                	mv	s3,a0
    80002b48:	892e                	mv	s2,a1
  struct proc *p = myproc();
    80002b4a:	fffff097          	auipc	ra,0xfffff
    80002b4e:	68c080e7          	jalr	1676(ra) # 800021d6 <myproc>
    80002b52:	84aa                	mv	s1,a0
  if(lk != &p->lock){  //DOC: sleeplock0
    80002b54:	05250663          	beq	a0,s2,80002ba0 <sleep+0x68>
    acquire(&p->lock);  //DOC: sleeplock1
    80002b58:	ffffe097          	auipc	ra,0xffffe
    80002b5c:	1bc080e7          	jalr	444(ra) # 80000d14 <acquire>
    release(lk);
    80002b60:	854a                	mv	a0,s2
    80002b62:	ffffe097          	auipc	ra,0xffffe
    80002b66:	266080e7          	jalr	614(ra) # 80000dc8 <release>
  p->chan = chan;
    80002b6a:	0334b423          	sd	s3,40(s1)
  p->state = SLEEPING;
    80002b6e:	4785                	li	a5,1
    80002b70:	cc9c                	sw	a5,24(s1)
  sched();
    80002b72:	00000097          	auipc	ra,0x0
    80002b76:	d40080e7          	jalr	-704(ra) # 800028b2 <sched>
  p->chan = 0;
    80002b7a:	0204b423          	sd	zero,40(s1)
    release(&p->lock);
    80002b7e:	8526                	mv	a0,s1
    80002b80:	ffffe097          	auipc	ra,0xffffe
    80002b84:	248080e7          	jalr	584(ra) # 80000dc8 <release>
    acquire(lk);
    80002b88:	854a                	mv	a0,s2
    80002b8a:	ffffe097          	auipc	ra,0xffffe
    80002b8e:	18a080e7          	jalr	394(ra) # 80000d14 <acquire>
}
    80002b92:	70a2                	ld	ra,40(sp)
    80002b94:	7402                	ld	s0,32(sp)
    80002b96:	64e2                	ld	s1,24(sp)
    80002b98:	6942                	ld	s2,16(sp)
    80002b9a:	69a2                	ld	s3,8(sp)
    80002b9c:	6145                	addi	sp,sp,48
    80002b9e:	8082                	ret
  p->chan = chan;
    80002ba0:	03353423          	sd	s3,40(a0)
  p->state = SLEEPING;
    80002ba4:	4785                	li	a5,1
    80002ba6:	cd1c                	sw	a5,24(a0)
  sched();
    80002ba8:	00000097          	auipc	ra,0x0
    80002bac:	d0a080e7          	jalr	-758(ra) # 800028b2 <sched>
  p->chan = 0;
    80002bb0:	0204b423          	sd	zero,40(s1)
  if(lk != &p->lock){
    80002bb4:	bff9                	j	80002b92 <sleep+0x5a>

0000000080002bb6 <wait>:
{
    80002bb6:	715d                	addi	sp,sp,-80
    80002bb8:	e486                	sd	ra,72(sp)
    80002bba:	e0a2                	sd	s0,64(sp)
    80002bbc:	fc26                	sd	s1,56(sp)
    80002bbe:	f84a                	sd	s2,48(sp)
    80002bc0:	f44e                	sd	s3,40(sp)
    80002bc2:	f052                	sd	s4,32(sp)
    80002bc4:	ec56                	sd	s5,24(sp)
    80002bc6:	e85a                	sd	s6,16(sp)
    80002bc8:	e45e                	sd	s7,8(sp)
    80002bca:	e062                	sd	s8,0(sp)
    80002bcc:	0880                	addi	s0,sp,80
    80002bce:	8b2a                	mv	s6,a0
  struct proc *p = myproc();
    80002bd0:	fffff097          	auipc	ra,0xfffff
    80002bd4:	606080e7          	jalr	1542(ra) # 800021d6 <myproc>
    80002bd8:	892a                	mv	s2,a0
  acquire(&p->lock);
    80002bda:	8c2a                	mv	s8,a0
    80002bdc:	ffffe097          	auipc	ra,0xffffe
    80002be0:	138080e7          	jalr	312(ra) # 80000d14 <acquire>
    havekids = 0;
    80002be4:	4b81                	li	s7,0
        if(np->state == ZOMBIE){
    80002be6:	4a11                	li	s4,4
    for(np = proc; np < &proc[NPROC]; np++){
    80002be8:	00014997          	auipc	s3,0x14
    80002bec:	6f098993          	addi	s3,s3,1776 # 800172d8 <tickslock>
        havekids = 1;
    80002bf0:	4a85                	li	s5,1
    havekids = 0;
    80002bf2:	875e                	mv	a4,s7
    for(np = proc; np < &proc[NPROC]; np++){
    80002bf4:	0000f497          	auipc	s1,0xf
    80002bf8:	ae448493          	addi	s1,s1,-1308 # 800116d8 <proc>
    80002bfc:	a08d                	j	80002c5e <wait+0xa8>
          pid = np->pid;
    80002bfe:	0384a983          	lw	s3,56(s1)
          if(addr != 0 && copyout(p->pagetable, addr, (char *)&np->xstate,
    80002c02:	000b0e63          	beqz	s6,80002c1e <wait+0x68>
    80002c06:	4691                	li	a3,4
    80002c08:	03448613          	addi	a2,s1,52
    80002c0c:	85da                	mv	a1,s6
    80002c0e:	05093503          	ld	a0,80(s2)
    80002c12:	fffff097          	auipc	ra,0xfffff
    80002c16:	f84080e7          	jalr	-124(ra) # 80001b96 <copyout>
    80002c1a:	02054263          	bltz	a0,80002c3e <wait+0x88>
          freeproc(np);
    80002c1e:	8526                	mv	a0,s1
    80002c20:	fffff097          	auipc	ra,0xfffff
    80002c24:	768080e7          	jalr	1896(ra) # 80002388 <freeproc>
          release(&np->lock);
    80002c28:	8526                	mv	a0,s1
    80002c2a:	ffffe097          	auipc	ra,0xffffe
    80002c2e:	19e080e7          	jalr	414(ra) # 80000dc8 <release>
          release(&p->lock);
    80002c32:	854a                	mv	a0,s2
    80002c34:	ffffe097          	auipc	ra,0xffffe
    80002c38:	194080e7          	jalr	404(ra) # 80000dc8 <release>
          return pid;
    80002c3c:	a8a9                	j	80002c96 <wait+0xe0>
            release(&np->lock);
    80002c3e:	8526                	mv	a0,s1
    80002c40:	ffffe097          	auipc	ra,0xffffe
    80002c44:	188080e7          	jalr	392(ra) # 80000dc8 <release>
            release(&p->lock);
    80002c48:	854a                	mv	a0,s2
    80002c4a:	ffffe097          	auipc	ra,0xffffe
    80002c4e:	17e080e7          	jalr	382(ra) # 80000dc8 <release>
            return -1;
    80002c52:	59fd                	li	s3,-1
    80002c54:	a089                	j	80002c96 <wait+0xe0>
    for(np = proc; np < &proc[NPROC]; np++){
    80002c56:	17048493          	addi	s1,s1,368
    80002c5a:	03348463          	beq	s1,s3,80002c82 <wait+0xcc>
      if(np->parent == p){
    80002c5e:	709c                	ld	a5,32(s1)
    80002c60:	ff279be3          	bne	a5,s2,80002c56 <wait+0xa0>
        acquire(&np->lock);
    80002c64:	8526                	mv	a0,s1
    80002c66:	ffffe097          	auipc	ra,0xffffe
    80002c6a:	0ae080e7          	jalr	174(ra) # 80000d14 <acquire>
        if(np->state == ZOMBIE){
    80002c6e:	4c9c                	lw	a5,24(s1)
    80002c70:	f94787e3          	beq	a5,s4,80002bfe <wait+0x48>
        release(&np->lock);
    80002c74:	8526                	mv	a0,s1
    80002c76:	ffffe097          	auipc	ra,0xffffe
    80002c7a:	152080e7          	jalr	338(ra) # 80000dc8 <release>
        havekids = 1;
    80002c7e:	8756                	mv	a4,s5
    80002c80:	bfd9                	j	80002c56 <wait+0xa0>
    if(!havekids || p->killed){
    80002c82:	c701                	beqz	a4,80002c8a <wait+0xd4>
    80002c84:	03092783          	lw	a5,48(s2)
    80002c88:	c785                	beqz	a5,80002cb0 <wait+0xfa>
      release(&p->lock);
    80002c8a:	854a                	mv	a0,s2
    80002c8c:	ffffe097          	auipc	ra,0xffffe
    80002c90:	13c080e7          	jalr	316(ra) # 80000dc8 <release>
      return -1;
    80002c94:	59fd                	li	s3,-1
}
